Component: ARM Compiler 5.05 update 1 (build 106) Tool: armlink [4d0efa]

==============================================================================

Section Cross References

    startup_stm32f10x_hd.o(STACK) refers (Special) to heapauxi.o(.text) for __use_two_region_memory
    startup_stm32f10x_hd.o(HEAP) refers (Special) to heapauxi.o(.text) for __use_two_region_memory
    startup_stm32f10x_hd.o(RESET) refers (Special) to heapauxi.o(.text) for __use_two_region_memory
    startup_stm32f10x_hd.o(RESET) refers to startup_stm32f10x_hd.o(.text) for Reset_Handler
    startup_stm32f10x_hd.o(RESET) refers to main.o(.text) for HardFault_Handler
    startup_stm32f10x_hd.o(RESET) refers to qk_port.o(.text) for SVC_Handler
    startup_stm32f10x_hd.o(RESET) refers to bsp.o(.text) for SysTick_Handler
    startup_stm32f10x_hd.o(RESET) refers to modem_sim900.o(.text) for DMA1_Channel4_IRQHandler
    startup_stm32f10x_hd.o(RESET) refers to io.o(.text) for EXTI9_5_IRQHandler
    startup_stm32f10x_hd.o(RESET) refers to nmea_parser.o(.text) for UART4_IRQHandler
    startup_stm32f10x_hd.o(.text) refers (Special) to heapauxi.o(.text) for __use_two_region_memory
    startup_stm32f10x_hd.o(.text) refers to startup_stm32f10x_hd.o(STACK) for __initial_sp
    startup_stm32f10x_hd.o(.text) refers to __main.o(!!!main) for __main
    startup_stm32f10x_hd.o(.text) refers to startup_stm32f10x_hd.o(HEAP) for Heap_Mem
    main.o(.text) refers to io.o(.text) for Io_ctor
    main.o(.text) refers to control_new.o(.text) for Control_ctor
    main.o(.text) refers to nmea_parser.o(.text) for GpsParser_ctor
    main.o(.text) refers to modem.o(.text) for Modem_ctor
    main.o(.text) refers to modem_parser.o(.text) for Mparser_ctor
    main.o(.text) refers to nav_filter.o(.text) for NavFilter_ctor
    main.o(.text) refers to disk.o(.text) for Fdisk_ctor
    main.o(.text) refers to qk.o(.text) for QF_init
    main.o(.text) refers to bsp.o(.text) for Bsp_init
    main.o(.text) refers to qs_dict.o(.text) for QS_obj_dict
    main.o(.text) refers to qf_pool.o(.text) for QF_poolInit
    main.o(.text) refers to qf_psini.o(.text) for QF_psInit
    main.o(.text) refers to main.o(.bss) for .bss
    main.o(.text) refers to qs.o(.bss) for QS_priv_
    main.o(.text) refers to main.o(.constdata) for .constdata
    main.o(.text) refers to disk.o(.constdata) for AO_Disk
    main.o(.text) refers to control_new.o(.constdata) for AO_Control
    main.o(.text) refers to nav_filter.o(.constdata) for AO_NavFilter
    main.o(.text) refers to nmea_parser.o(.constdata) for AO_GpsParser
    main.o(.text) refers to modem_parser.o(.constdata) for AO_ModemParser
    main.o(.text) refers to modem.o(.constdata) for AO_Modem
    main.o(.text) refers to io.o(.constdata) for AO_Io
    bsp.o(.text) refers to strcpy.o(.text) for strcpy
    bsp.o(.text) refers to qs.o(.text) for QS_initBuf
    bsp.o(.text) refers to stm32f10x_gpio.o(.text) for GPIO_Init
    bsp.o(.text) refers to stm32f10x_usart.o(.text) for USART_Init
    bsp.o(.text) refers to stm32f10x_rcc.o(.text) for RCC_GetClocksFreq
    bsp.o(.text) refers to system_stm32f10x.o(.text) for SystemInit
    bsp.o(.text) refers to ledindicator.o(.text) for LedIndicator_init
    bsp.o(.text) refers to qf_pspub.o(.text) for QF_publish
    bsp.o(.text) refers to qf_tick.o(.text) for QF_tickX
    bsp.o(.text) refers to qs_byte.o(.text) for QS_getByte
    bsp.o(.text) refers to bsp.o(.data) for .data
    bsp.o(.text) refers to bsp.o(.bss) for .bss
    bsp.o(.text) refers to main.o(.bss) for SysInfo
    bsp.o(.text) refers to bsp.o(.constdata) for .constdata
    bsp.o(.text) refers to qk.o(.data) for QK_intNest_
    bsp.o(.text) refers to main.o(.data) for watch_flag
    config.o(.text) refers to _printf_percent.o(.ARM.Collect$$_printf_percent$$00000000) for _printf_percent
    config.o(.text) refers to _printf_s.o(.ARM.Collect$$_printf_percent$$00000014) for _printf_s
    config.o(.text) refers to _printf_str.o(.text) for _printf_str
    config.o(.text) refers to _printf_u.o(.ARM.Collect$$_printf_percent$$0000000A) for _printf_u
    config.o(.text) refers to _printf_dec.o(.text) for _printf_int_dec
    config.o(.text) refers to rt_ctype_table.o(.text) for __rt_ctype_table
    config.o(.text) refers to toupper.o(.text) for toupper
    config.o(.text) refers to strcmpv7m.o(.text) for strcmp
    config.o(.text) refers to atoi.o(.text) for atoi
    config.o(.text) refers to strlcpy.o(.text) for strlcpy
    config.o(.text) refers to modem.o(.bss) for parser_sms_answer
    config.o(.text) refers to config.o(.bss) for .bss
    config.o(.text) refers to strncpy.o(.text) for strncpy
    config.o(.text) refers to __2sprintf.o(.text) for __2sprintf
    config.o(.text) refers to qs.o(.text) for QS_beginRec
    config.o(.text) refers to bsp.o(.text) for QS_onGetTime
    config.o(.text) refers to qs_.o(.text) for QS_u32_
    config.o(.text) refers to qs_str.o(.text) for QS_str
    config.o(.text) refers to strcat.o(.text) for strcat
    config.o(.text) refers to qs.o(.bss) for QS_priv_
    config.o(.text) refers to config.o(.data) for .data
    config.o(.text) refers to control_new.o(.constdata) for AO_Control
    config.o(.text) refers to config.o(.constdata) for .constdata
    config.o(.text) refers to main.o(.constdata) for FwVer
    config.o(.text) refers to strlen.o(.text) for strlen
    config.o(.text) refers to crc16.o(.text) for MakeCRC16
    config.o(.data) refers to config.o(.conststring) for .conststring
    config.o(.data) refers to config.o(.text) for GetRS485
    crc32.o(.text) refers to crc32.o(.constdata) for .constdata
    crc16.o(.text) refers to crc16.o(.data) for .data
    crc16.o(.text) refers to crc16.o(.constdata) for .constdata
    qk_port.o(.text) refers to qk_sched.o(.text) for QK_schedPrio_
    stm32f10x_adc.o(.text) refers to stm32f10x_rcc.o(.text) for RCC_APB2PeriphResetCmd
    stm32f10x_gpio.o(.text) refers to stm32f10x_rcc.o(.text) for RCC_APB2PeriphResetCmd
    stm32f10x_rcc.o(.text) refers to stm32f10x_rcc.o(.data) for .data
    stm32f10x_spi.o(.text) refers to stm32f10x_rcc.o(.text) for RCC_APB2PeriphResetCmd
    stm32f10x_tim.o(.text) refers to stm32f10x_rcc.o(.text) for RCC_APB1PeriphResetCmd
    stm32f10x_usart.o(.text) refers to stm32f10x_rcc.o(.text) for RCC_APB1PeriphResetCmd
    modem.o(.text) refers to _printf_percent.o(.ARM.Collect$$_printf_percent$$00000000) for _printf_percent
    modem.o(.text) refers to _printf_u.o(.ARM.Collect$$_printf_percent$$0000000A) for _printf_u
    modem.o(.text) refers to _printf_dec.o(.text) for _printf_int_dec
    modem.o(.text) refers to _printf_s.o(.ARM.Collect$$_printf_percent$$00000014) for _printf_s
    modem.o(.text) refers to _printf_str.o(.text) for _printf_str
    modem.o(.text) refers to _printf_d.o(.ARM.Collect$$_printf_percent$$00000009) for _printf_d
    modem.o(.text) refers to qs.o(.text) for QS_beginRec
    modem.o(.text) refers to bsp.o(.text) for QS_onGetTime
    modem.o(.text) refers to qs_.o(.text) for QS_u32_
    modem.o(.text) refers to qs_str.o(.text) for QS_str
    modem.o(.text) refers to qfsm_dis.o(.text) for QFsm_dispatch
    modem.o(.text) refers to modem_sim900.o(.text) for ModemTxPin_deinit
    modem.o(.text) refers to qs.o(.bss) for QS_priv_
    modem.o(.text) refers to modem.o(.constdata) for .constdata
    modem.o(.text) refers to modem.o(.bss) for .bss
    modem.o(.text) refers to main.o(.bss) for SysInfo
    modem.o(.text) refers to control_new.o(.constdata) for AO_Control
    modem.o(.text) refers to modem.o(.data) for .data
    modem.o(.text) refers to qte_arm.o(.text) for QTimeEvt_armX
    modem.o(.text) refers to parsersms.o(.text) for ParserSms
    modem.o(.text) refers to qte_darm.o(.text) for QTimeEvt_disarm
    modem.o(.text) refers to __2sprintf.o(.text) for __2sprintf
    modem.o(.text) refers to strcpy.o(.text) for strcpy
    modem.o(.text) refers to strcat.o(.text) for strcat
    modem.o(.text) refers to strlen.o(.text) for strlen
    modem.o(.text) refers to ledindicator.o(.data) for ind_flag
    modem.o(.text) refers to modem_parser.o(.constdata) for AO_ModemParser
    modem.o(.text) refers to config.o(.data) for gprs_ptr
    modem.o(.text) refers to config.o(.bss) for conf_rs485_sensor
    modem.o(.text) refers to main.o(.constdata) for FwVer
    modem.o(.text) refers to disk.o(.constdata) for AO_Disk
    modem.o(.text) refers to disk.o(.constdata) for DiskSaveConfigEvt
    modem.o(.text) refers to bytestream.o(.text) for BufToLittleEndianInt
    modem.o(.text) refers to rt_memcpy_v6.o(.text) for __aeabi_memcpy
    modem.o(.text) refers to crc16.o(.text) for MakeCRC16
    modem.o(.text) refers to qf_new.o(.text) for QF_newX_
    modem.o(.text) refers to stm32f10x_rcc.o(.text) for RCC_APB2PeriphClockCmd
    modem.o(.text) refers to qhsm_top.o(.text) for QHsm_top
    modem.o(.text) refers to qs_dict.o(.text) for QS_obj_dict
    modem.o(.text) refers to qfsm_ini.o(.text) for QFsm_init
    modem.o(.text) refers to qa_sub.o(.text) for QActive_subscribe
    modem.o(.text) refers to qa_ctor.o(.text) for QActive_ctor
    modem.o(.text) refers to qte_ctor.o(.text) for QTimeEvt_ctorX
    modem.o(.constdata) refers to modem.o(.bss) for modem
    modem_parser.o(.text) refers to qs.o(.text) for QS_beginRec
    modem_parser.o(.text) refers to bsp.o(.text) for QS_onGetTime
    modem_parser.o(.text) refers to qs_.o(.text) for QS_u32_
    modem_parser.o(.text) refers to qs_str.o(.text) for QS_str
    modem_parser.o(.text) refers to modemringbuf.o(.text) for ModemRingBuf_pop
    modem_parser.o(.text) refers to qf_new.o(.text) for QF_newX_
    modem_parser.o(.text) refers to strlen.o(.text) for strlen
    modem_parser.o(.text) refers to rt_ctype_table.o(.text) for __rt_ctype_table
    modem_parser.o(.text) refers to qs.o(.bss) for QS_priv_
    modem_parser.o(.text) refers to modem_parser.o(.constdata) for .constdata
    modem_parser.o(.text) refers to qhsm_top.o(.text) for QHsm_top
    modem_parser.o(.text) refers to modem_parser.o(.bss) for .bss
    modem_parser.o(.text) refers to modem.o(.constdata) for AO_Modem
    modem_parser.o(.text) refers to modem_parser.o(.data) for .data
    modem_parser.o(.text) refers to strncmp.o(.text) for strncmp
    modem_parser.o(.text) refers to rt_memcpy_v6.o(.text) for __aeabi_memcpy
    modem_parser.o(.text) refers to strstr.o(.text) for strstr
    modem_parser.o(.text) refers to rt_memclr_w.o(.text) for __aeabi_memclr4
    modem_parser.o(.text) refers to atoi.o(.text) for atoi
    modem_parser.o(.text) refers to strncpy.o(.text) for strncpy
    modem_parser.o(.text) refers to strchr.o(.text) for strchr
    modem_parser.o(.text) refers to strlcpy.o(.text) for strlcpy
    modem_parser.o(.text) refers to qs_dict.o(.text) for QS_sig_dict
    modem_parser.o(.text) refers to qte_ctor.o(.text) for QTimeEvt_ctorX
    modem_parser.o(.text) refers to qte_arm.o(.text) for QTimeEvt_armX
    modem_parser.o(.text) refers to qa_ctor.o(.text) for QActive_ctor
    modem_parser.o(.constdata) refers to modem_parser.o(.bss) for mpar
    modem_parser.o(.data) refers to modem_parser.o(.conststring) for .conststring
    modem_sim900.o(.text) refers to _printf_percent.o(.ARM.Collect$$_printf_percent$$00000000) for _printf_percent
    modem_sim900.o(.text) refers to _printf_u.o(.ARM.Collect$$_printf_percent$$0000000A) for _printf_u
    modem_sim900.o(.text) refers to _printf_dec.o(.text) for _printf_int_dec
    modem_sim900.o(.text) refers to _printf_s.o(.ARM.Collect$$_printf_percent$$00000014) for _printf_s
    modem_sim900.o(.text) refers to _printf_str.o(.text) for _printf_str
    modem_sim900.o(.text) refers to modem_sim900.o(.constdata) for .constdata
    modem_sim900.o(.text) refers to modem_sim900.o(.data) for .data
    modem_sim900.o(.text) refers to modem.o(.constdata) for AO_Modem
    modem_sim900.o(.text) refers to modem_sim900.o(.bss) for .bss
    modem_sim900.o(.text) refers to __2sprintf.o(.text) for __2sprintf
    modem_sim900.o(.text) refers to modem_parser.o(.constdata) for AO_ModemParser
    modem_sim900.o(.text) refers to config.o(.data) for gprs_ptr
    modem_sim900.o(.text) refers to modem.o(.data) for GsmState
    modem_sim900.o(.text) refers to stm32f10x_gpio.o(.text) for GPIO_Init
    modem_sim900.o(.text) refers to rt_memcpy_v6.o(.text) for __aeabi_memcpy
    modem_sim900.o(.text) refers to main.o(.bss) for SysInfo
    modem_sim900.o(.text) refers to stm32f10x_usart.o(.text) for USART_Init
    modem_sim900.o(.text) refers to misc.o(.text) for NVIC_Init
    modem_sim900.o(.text) refers to stm32f10x_dma.o(.text) for DMA_DeInit
    modem_sim900.o(.text) refers to qs_dict.o(.text) for QS_fun_dict
    modem_sim900.o(.text) refers to qs.o(.bss) for QS_priv_
    modem_sim900.o(.text) refers to qfsm_ini.o(.text) for QFsm_ctor
    modem_sim900.o(.text) refers to modemringbuf.o(.text) for ModemRingBuf_push
    modem_sim900.o(.constdata) refers to modem_sim900.o(.text) for ModemSM_power_on
    modemringbuf.o(.text) refers to rt_memclr.o(.text) for __aeabi_memclr
    modemringbuf.o(.text) refers to modemringbuf.o(.data) for .data
    qa_ctor.o(.text) refers to qhsm_ini.o(.text) for QHsm_ctor
    qa_ctor.o(.text) refers to qa_ctor.o(.constdata) for .constdata
    qa_ctor.o(.constdata) refers to qhsm_ini.o(.text) for QHsm_init
    qa_ctor.o(.constdata) refers to qhsm_dis.o(.text) for QHsm_dispatch
    qa_ctor.o(.constdata) refers to qk.o(.text) for QActive_start
    qa_ctor.o(.constdata) refers to qa_fifo.o(.text) for QActive_post
    qa_ctor.o(.constdata) refers to qa_lifo.o(.text) for QActive_postLIFO
    qa_defer.o(.text) refers to qeq_fifo.o(.text) for QEQueue_post
    qa_defer.o(.text) refers to qeq_get.o(.text) for QEQueue_get
    qa_defer.o(.text) refers to bsp.o(.text) for Q_onAssert
    qa_defer.o(.text) refers to qa_defer.o(.constdata) for .constdata
    qa_fifo.o(.text) refers to bsp.o(.text) for Q_onAssert
    qa_fifo.o(.text) refers to qs.o(.text) for QS_beginRec
    qa_fifo.o(.text) refers to qs_.o(.text) for QS_u32_
    qa_fifo.o(.text) refers to qk_sched.o(.text) for QK_schedPrio_
    qa_fifo.o(.text) refers to qa_fifo.o(.constdata) for .constdata
    qa_fifo.o(.text) refers to qa_fifo.o(.data) for .data
    qa_fifo.o(.text) refers to qs.o(.bss) for QS_priv_
    qa_fifo.o(.text) refers to qf_pwr2.o(.constdata) for QF_div8Lkup
    qa_fifo.o(.text) refers to qk.o(.bss) for QK_readySet_
    qa_fifo.o(.text) refers to qf_pwr2.o(.constdata) for QF_pwr2Lkup
    qa_fifo.o(.text) refers to qk.o(.data) for QK_intNest_
    qa_get_.o(.text) refers to bsp.o(.text) for Q_onAssert
    qa_get_.o(.text) refers to qs.o(.text) for QS_beginRec
    qa_get_.o(.text) refers to qs_.o(.text) for QS_u32_
    qa_get_.o(.text) refers to qa_get_.o(.constdata) for .constdata
    qa_get_.o(.text) refers to qs.o(.bss) for QS_priv_
    qa_get_.o(.text) refers to qf_pwr2.o(.constdata) for QF_div8Lkup
    qa_get_.o(.text) refers to qk.o(.bss) for QK_readySet_
    qa_get_.o(.text) refers to qf_pwr2.o(.constdata) for QF_invPwr2Lkup
    qa_get_.o(.text) refers to qf_act.o(.bss) for QF_active_
    qa_lifo.o(.text) refers to bsp.o(.text) for Q_onAssert
    qa_lifo.o(.text) refers to qs.o(.text) for QS_beginRec
    qa_lifo.o(.text) refers to qs_.o(.text) for QS_u32_
    qa_lifo.o(.text) refers to qk_sched.o(.text) for QK_schedPrio_
    qa_lifo.o(.text) refers to qa_lifo.o(.constdata) for .constdata
    qa_lifo.o(.text) refers to qs.o(.bss) for QS_priv_
    qa_lifo.o(.text) refers to qf_pwr2.o(.constdata) for QF_div8Lkup
    qa_lifo.o(.text) refers to qk.o(.bss) for QK_readySet_
    qa_lifo.o(.text) refers to qf_pwr2.o(.constdata) for QF_pwr2Lkup
    qa_lifo.o(.text) refers to qk.o(.data) for QK_intNest_
    qa_sub.o(.text) refers to bsp.o(.text) for Q_onAssert
    qa_sub.o(.text) refers to qs.o(.text) for QS_beginRec
    qa_sub.o(.text) refers to qs_.o(.text) for QS_u32_
    qa_sub.o(.text) refers to qf_pwr2.o(.constdata) for QF_div8Lkup
    qa_sub.o(.text) refers to qf_psini.o(.data) for QF_maxSignal_
    qa_sub.o(.text) refers to qf_act.o(.bss) for QF_active_
    qa_sub.o(.text) refers to qa_sub.o(.constdata) for .constdata
    qa_sub.o(.text) refers to qs.o(.bss) for QS_priv_
    qa_sub.o(.text) refers to qf_pwr2.o(.constdata) for QF_pwr2Lkup
    qa_usub.o(.text) refers to bsp.o(.text) for Q_onAssert
    qa_usub.o(.text) refers to qs.o(.text) for QS_beginRec
    qa_usub.o(.text) refers to qs_.o(.text) for QS_u32_
    qa_usub.o(.text) refers to qf_pwr2.o(.constdata) for QF_div8Lkup
    qa_usub.o(.text) refers to qf_psini.o(.data) for QF_maxSignal_
    qa_usub.o(.text) refers to qf_act.o(.bss) for QF_active_
    qa_usub.o(.text) refers to qa_usub.o(.constdata) for .constdata
    qa_usub.o(.text) refers to qs.o(.bss) for QS_priv_
    qa_usub.o(.text) refers to qf_pwr2.o(.constdata) for QF_invPwr2Lkup
    qa_usuba.o(.text) refers to bsp.o(.text) for Q_onAssert
    qa_usuba.o(.text) refers to qs.o(.text) for QS_beginRec
    qa_usuba.o(.text) refers to qs_.o(.text) for QS_u32_
    qa_usuba.o(.text) refers to qf_act.o(.bss) for QF_active_
    qa_usuba.o(.text) refers to qa_usuba.o(.constdata) for .constdata
    qa_usuba.o(.text) refers to qf_pwr2.o(.constdata) for QF_div8Lkup
    qa_usuba.o(.text) refers to qs.o(.bss) for QS_priv_
    qa_usuba.o(.text) refers to qf_psini.o(.data) for QF_subscrList_
    qa_usuba.o(.text) refers to qf_pwr2.o(.constdata) for QF_pwr2Lkup
    qa_usuba.o(.text) refers to qf_pwr2.o(.constdata) for QF_invPwr2Lkup
    qeq_fifo.o(.text) refers to bsp.o(.text) for Q_onAssert
    qeq_fifo.o(.text) refers to qs.o(.text) for QS_beginRec
    qeq_fifo.o(.text) refers to qs_.o(.text) for QS_u32_
    qeq_fifo.o(.text) refers to qeq_fifo.o(.constdata) for .constdata
    qeq_fifo.o(.text) refers to qs.o(.bss) for QS_priv_
    qeq_get.o(.text) refers to qs.o(.text) for QS_beginRec
    qeq_get.o(.text) refers to bsp.o(.text) for QS_onGetTime
    qeq_get.o(.text) refers to qs_.o(.text) for QS_u32_
    qeq_get.o(.text) refers to qs.o(.bss) for QS_priv_
    qeq_get.o(.text) refers to qeq_get.o(.constdata) for .constdata
    qeq_init.o(.text) refers to qs.o(.text) for QS_beginRec
    qeq_init.o(.text) refers to qs_.o(.text) for QS_u32_
    qeq_init.o(.text) refers to qs.o(.bss) for QS_priv_
    qeq_lifo.o(.text) refers to bsp.o(.text) for Q_onAssert
    qeq_lifo.o(.text) refers to qs.o(.text) for QS_beginRec
    qeq_lifo.o(.text) refers to qs_.o(.text) for QS_u32_
    qeq_lifo.o(.text) refers to qeq_lifo.o(.constdata) for .constdata
    qeq_lifo.o(.text) refers to qs.o(.bss) for QS_priv_
    qf_act.o(.text) refers to bsp.o(.text) for Q_onAssert
    qf_act.o(.text) refers to qs.o(.text) for QS_beginRec
    qf_act.o(.text) refers to qs_.o(.text) for QS_u32_
    qf_act.o(.text) refers to qf_act.o(.bss) for .bss
    qf_act.o(.text) refers to qf_act.o(.constdata) for .constdata
    qf_act.o(.text) refers to qs.o(.bss) for QS_priv_
    qf_gc.o(.text) refers to qs.o(.text) for QS_beginRec
    qf_gc.o(.text) refers to bsp.o(.text) for QS_onGetTime
    qf_gc.o(.text) refers to qs_.o(.text) for QS_u32_
    qf_gc.o(.text) refers to qmp_put.o(.text) for QMPool_put
    qf_gc.o(.text) refers to qs.o(.bss) for QS_priv_
    qf_gc.o(.text) refers to qf_pool.o(.data) for QF_maxPool_
    qf_gc.o(.text) refers to qf_gc.o(.constdata) for .constdata
    qf_gc.o(.text) refers to qf_pool.o(.bss) for QF_pool_
    qf_new.o(.text) refers to bsp.o(.text) for Q_onAssert
    qf_new.o(.text) refers to qs.o(.text) for QS_beginRec
    qf_new.o(.text) refers to qs_.o(.text) for QS_u32_
    qf_new.o(.text) refers to qmp_get.o(.text) for QMPool_get
    qf_new.o(.text) refers to qf_pool.o(.bss) for QF_pool_
    qf_new.o(.text) refers to qf_pool.o(.data) for QF_maxPool_
    qf_new.o(.text) refers to qf_new.o(.constdata) for .constdata
    qf_new.o(.text) refers to qs.o(.bss) for QS_priv_
    qf_pool.o(.text) refers to bsp.o(.text) for Q_onAssert
    qf_pool.o(.text) refers to qmp_init.o(.text) for QMPool_init
    qf_pool.o(.text) refers to qf_pool.o(.data) for .data
    qf_pool.o(.text) refers to qf_pool.o(.constdata) for .constdata
    qf_pool.o(.text) refers to qf_pool.o(.bss) for .bss
    qf_psini.o(.text) refers to qf_psini.o(.data) for .data
    qf_pspub.o(.text) refers to bsp.o(.text) for Q_onAssert
    qf_pspub.o(.text) refers to qs.o(.text) for QS_beginRec
    qf_pspub.o(.text) refers to qs_.o(.text) for QS_u32_
    qf_pspub.o(.text) refers to qf_gc.o(.text) for QF_gc
    qf_pspub.o(.text) refers to qf_psini.o(.data) for QF_maxSignal_
    qf_pspub.o(.text) refers to qf_pspub.o(.constdata) for .constdata
    qf_pspub.o(.text) refers to qs.o(.bss) for QS_priv_
    qf_pspub.o(.text) refers to qf_act.o(.bss) for QF_active_
    qf_pspub.o(.text) refers to qf_pwr2.o(.constdata) for QF_invPwr2Lkup
    qf_tick.o(.text) refers to qs.o(.text) for QS_beginRec
    qf_tick.o(.text) refers to qs_.o(.text) for QS_u16_
    qf_tick.o(.text) refers to bsp.o(.text) for Q_onAssert
    qf_tick.o(.text) refers to qf_tick.o(.bss) for .bss
    qf_tick.o(.text) refers to qs.o(.bss) for QS_priv_
    qf_tick.o(.text) refers to qf_tick.o(.constdata) for .constdata
    qma_ctor.o(.text) refers to qmsm_ini.o(.text) for QMsm_ctor
    qma_ctor.o(.text) refers to qma_ctor.o(.constdata) for .constdata
    qma_ctor.o(.constdata) refers to qmsm_ini.o(.text) for QMsm_init
    qma_ctor.o(.constdata) refers to qmsm_dis.o(.text) for QMsm_dispatch
    qma_ctor.o(.constdata) refers to qk.o(.text) for QActive_start
    qma_ctor.o(.constdata) refers to qa_fifo.o(.text) for QActive_post
    qma_ctor.o(.constdata) refers to qa_lifo.o(.text) for QActive_postLIFO
    qmp_get.o(.text) refers to bsp.o(.text) for Q_onAssert
    qmp_get.o(.text) refers to qs.o(.text) for QS_beginRec
    qmp_get.o(.text) refers to qs_.o(.text) for QS_u32_
    qmp_get.o(.text) refers to qs.o(.bss) for QS_priv_
    qmp_get.o(.text) refers to qmp_get.o(.constdata) for .constdata
    qmp_get.o(.text) refers to qf_pool.o(.data) for QF_maxPool_
    qmp_get.o(.text) refers to qf_pool.o(.bss) for QF_pool_
    qmp_init.o(.text) refers to bsp.o(.text) for Q_onAssert
    qmp_init.o(.text) refers to qs.o(.text) for QS_beginRec
    qmp_init.o(.text) refers to qs_.o(.text) for QS_u32_
    qmp_init.o(.text) refers to qmp_init.o(.constdata) for .constdata
    qmp_init.o(.text) refers to qs.o(.bss) for QS_priv_
    qmp_put.o(.text) refers to bsp.o(.text) for Q_onAssert
    qmp_put.o(.text) refers to qs.o(.text) for QS_beginRec
    qmp_put.o(.text) refers to qs_.o(.text) for QS_u32_
    qmp_put.o(.text) refers to qmp_put.o(.constdata) for .constdata
    qmp_put.o(.text) refers to qs.o(.bss) for QS_priv_
    qte_arm.o(.text) refers to bsp.o(.text) for Q_onAssert
    qte_arm.o(.text) refers to qs.o(.text) for QS_beginRec
    qte_arm.o(.text) refers to qs_.o(.text) for QS_u32_
    qte_arm.o(.text) refers to qte_arm.o(.constdata) for .constdata
    qte_arm.o(.text) refers to qf_tick.o(.bss) for QF_timeEvtHead_
    qte_arm.o(.text) refers to qs.o(.bss) for QS_priv_
    qte_ctor.o(.text) refers to bsp.o(.text) for Q_onAssert
    qte_ctor.o(.text) refers to qte_ctor.o(.constdata) for .constdata
    qte_ctr.o(.text) refers to qs.o(.text) for QS_beginRec
    qte_ctr.o(.text) refers to bsp.o(.text) for QS_onGetTime
    qte_ctr.o(.text) refers to qs_.o(.text) for QS_u32_
    qte_ctr.o(.text) refers to qs.o(.bss) for QS_priv_
    qte_darm.o(.text) refers to qs.o(.text) for QS_beginRec
    qte_darm.o(.text) refers to bsp.o(.text) for QS_onGetTime
    qte_darm.o(.text) refers to qs_.o(.text) for QS_u32_
    qte_darm.o(.text) refers to qs.o(.bss) for QS_priv_
    qte_rarm.o(.text) refers to bsp.o(.text) for Q_onAssert
    qte_rarm.o(.text) refers to qs.o(.text) for QS_beginRec
    qte_rarm.o(.text) refers to qs_.o(.text) for QS_u32_
    qte_rarm.o(.text) refers to qte_rarm.o(.constdata) for .constdata
    qte_rarm.o(.text) refers to qs.o(.bss) for QS_priv_
    qte_rarm.o(.text) refers to qf_tick.o(.bss) for QF_timeEvtHead_
    qk.o(.text) refers to qk_port.o(.text) for QK_init
    qk.o(.text) refers to bsp.o(.text) for QF_onCleanup
    qk.o(.text) refers to qk_sched.o(.text) for QK_schedPrio_
    qk.o(.text) refers to qeq_init.o(.text) for QEQueue_init
    qk.o(.text) refers to qf_act.o(.text) for QF_add_
    qk.o(.text) refers to qk.o(.data) for .data
    qk.o(.text) refers to qk.o(.constdata) for .constdata
    qk_ext.o(.text) refers to qs.o(.text) for QS_beginRec
    qk_ext.o(.text) refers to bsp.o(.text) for QS_onGetTime
    qk_ext.o(.text) refers to qs_.o(.text) for QS_u32_
    qk_ext.o(.text) refers to qa_get_.o(.text) for QActive_get_
    qk_ext.o(.text) refers to qf_gc.o(.text) for QF_gc
    qk_ext.o(.text) refers to qk.o(.data) for QK_currPrio_
    qk_ext.o(.text) refers to qf_act.o(.bss) for QF_active_
    qk_ext.o(.text) refers to qs.o(.bss) for QS_priv_
    qk_ext.o(.text) refers to qk.o(.bss) for QK_readySet_
    qk_ext.o(.text) refers to qk_mutex.o(.data) for QK_ceilingPrio_
    qk_mutex.o(.text) refers to qs.o(.text) for QS_beginRec
    qk_mutex.o(.text) refers to bsp.o(.text) for QS_onGetTime
    qk_mutex.o(.text) refers to qs_.o(.text) for QS_u32_
    qk_mutex.o(.text) refers to qk_sched.o(.text) for QK_schedPrio_
    qk_mutex.o(.text) refers to qk_mutex.o(.data) for .data
    qk_mutex.o(.text) refers to qs.o(.bss) for QS_priv_
    qk_sched.o(.text) refers to qs.o(.text) for QS_beginRec
    qk_sched.o(.text) refers to bsp.o(.text) for QS_onGetTime
    qk_sched.o(.text) refers to qs_.o(.text) for QS_u32_
    qk_sched.o(.text) refers to qa_get_.o(.text) for QActive_get_
    qk_sched.o(.text) refers to qf_gc.o(.text) for QF_gc
    qk_sched.o(.text) refers to qk.o(.bss) for QK_readySet_
    qk_sched.o(.text) refers to qk.o(.data) for QK_currPrio_
    qk_sched.o(.text) refers to qk_mutex.o(.data) for QK_ceilingPrio_
    qk_sched.o(.text) refers to qf_act.o(.bss) for QF_active_
    qk_sched.o(.text) refers to qs.o(.bss) for QS_priv_
    qs.o(.text) refers to bsp.o(.text) for Q_onAssert
    qs.o(.text) refers to qs.o(.bss) for .bss
    qs.o(.text) refers to qs.o(.constdata) for .constdata
    qs_.o(.text) refers to qs.o(.bss) for QS_priv_
    qs_blk.o(.text) refers to qs.o(.bss) for QS_priv_
    qs_byte.o(.text) refers to qs.o(.bss) for QS_priv_
    qs_dict.o(.text) refers to qs.o(.text) for QS_beginRec
    qs_dict.o(.text) refers to qs_.o(.text) for QS_u16_
    qs_dict.o(.text) refers to bsp.o(.text) for QS_onFlush
    qs_f32.o(.text) refers to qs.o(.bss) for QS_priv_
    qs_f64.o(.text) refers to qs.o(.bss) for QS_priv_
    qs_mem.o(.text) refers to qs.o(.bss) for QS_priv_
    qs_str.o(.text) refers to qs.o(.bss) for QS_priv_
    qfsm_dis.o(.text) refers to bsp.o(.text) for Q_onAssert
    qfsm_dis.o(.text) refers to qs.o(.text) for QS_beginRec
    qfsm_dis.o(.text) refers to qs_.o(.text) for QS_u32_
    qfsm_dis.o(.text) refers to qfsm_dis.o(.constdata) for .constdata
    qfsm_dis.o(.text) refers to qs.o(.bss) for QS_priv_
    qfsm_dis.o(.text) refers to qep.o(.constdata) for QEP_reservedEvt_
    qfsm_ini.o(.text) refers to bsp.o(.text) for Q_onAssert
    qfsm_ini.o(.text) refers to qs.o(.text) for QS_beginRec
    qfsm_ini.o(.text) refers to qs_.o(.text) for QS_u32_
    qfsm_ini.o(.text) refers to qfsm_ini.o(.constdata) for .constdata
    qfsm_ini.o(.text) refers to qs.o(.bss) for QS_priv_
    qfsm_ini.o(.text) refers to qep.o(.constdata) for QEP_reservedEvt_
    qfsm_ini.o(.constdata) refers to qfsm_ini.o(.text) for QFsm_init
    qfsm_ini.o(.constdata) refers to qfsm_dis.o(.text) for QFsm_dispatch
    qhsm_dis.o(.text) refers to bsp.o(.text) for Q_onAssert
    qhsm_dis.o(.text) refers to qs.o(.text) for QS_beginRec
    qhsm_dis.o(.text) refers to qs_.o(.text) for QS_u32_
    qhsm_dis.o(.text) refers to qhsm_dis.o(.constdata) for .constdata
    qhsm_dis.o(.text) refers to qs.o(.bss) for QS_priv_
    qhsm_dis.o(.text) refers to qep.o(.constdata) for QEP_reservedEvt_
    qhsm_in.o(.text) refers to bsp.o(.text) for Q_onAssert
    qhsm_in.o(.text) refers to qhsm_in.o(.constdata) for .constdata
    qhsm_in.o(.text) refers to qep.o(.constdata) for QEP_reservedEvt_
    qhsm_ini.o(.text) refers to bsp.o(.text) for Q_onAssert
    qhsm_ini.o(.text) refers to qs.o(.text) for QS_beginRec
    qhsm_ini.o(.text) refers to qs_.o(.text) for QS_u32_
    qhsm_ini.o(.text) refers to qhsm_ini.o(.constdata) for .constdata
    qhsm_ini.o(.text) refers to qhsm_top.o(.text) for QHsm_top
    qhsm_ini.o(.text) refers to qs.o(.bss) for QS_priv_
    qhsm_ini.o(.text) refers to qep.o(.constdata) for QEP_reservedEvt_
    qhsm_ini.o(.constdata) refers to qhsm_ini.o(.text) for QHsm_init
    qhsm_ini.o(.constdata) refers to qhsm_dis.o(.text) for QHsm_dispatch
    qmsm_dis.o(.text) refers to bsp.o(.text) for Q_onAssert
    qmsm_dis.o(.text) refers to qs.o(.text) for QS_beginRec
    qmsm_dis.o(.text) refers to qs_.o(.text) for QS_u32_
    qmsm_dis.o(.text) refers to qmsm_dis.o(.constdata) for .constdata
    qmsm_dis.o(.text) refers to qs.o(.bss) for QS_priv_
    qmsm_ini.o(.text) refers to bsp.o(.text) for Q_onAssert
    qmsm_ini.o(.text) refers to qs.o(.text) for QS_beginRec
    qmsm_ini.o(.text) refers to qs_.o(.text) for QS_u32_
    qmsm_ini.o(.text) refers to qmsm_ini.o(.constdata) for .constdata
    qmsm_ini.o(.text) refers to qs.o(.bss) for QS_priv_
    qmsm_ini.o(.constdata) refers to qmsm_ini.o(.text) for QMsm_init
    qmsm_ini.o(.constdata) refers to qmsm_dis.o(.text) for QMsm_dispatch
    parsersms.o(.text) refers to _printf_percent.o(.ARM.Collect$$_printf_percent$$00000000) for _printf_percent
    parsersms.o(.text) refers to _printf_s.o(.ARM.Collect$$_printf_percent$$00000014) for _printf_s
    parsersms.o(.text) refers to _printf_str.o(.text) for _printf_str
    parsersms.o(.text) refers to _printf_u.o(.ARM.Collect$$_printf_percent$$0000000A) for _printf_u
    parsersms.o(.text) refers to _printf_dec.o(.text) for _printf_int_dec
    parsersms.o(.text) refers to toupper.o(.text) for toupper
    parsersms.o(.text) refers to strncmp.o(.text) for strncmp
    parsersms.o(.text) refers to strchr.o(.text) for strchr
    parsersms.o(.text) refers to __2sprintf.o(.text) for __2sprintf
    parsersms.o(.text) refers to strncpy.o(.text) for strncpy
    parsersms.o(.text) refers to strstr.o(.text) for strstr
    parsersms.o(.text) refers to atoi.o(.text) for atoi
    parsersms.o(.text) refers to config.o(.data) for sms_cmd_tbl
    parsersms.o(.text) refers to parsersms.o(.bss) for .bss
    parsersms.o(.text) refers to ledindicator.o(.data) for ind_flag
    parsersms.o(.text) refers to parsersms.o(.data) for .data
    memory_spi.o(.text) refers to stm32f10x_gpio.o(.text) for GPIO_Init
    memory_spi.o(.text) refers to stm32f10x_spi.o(.text) for SPI_I2S_DeInit
    at45db.o(.text) refers to stm32f10x_gpio.o(.text) for GPIO_Init
    at45db.o(.text) refers to stm32f10x_spi.o(.text) for SPI_I2S_GetFlagStatus
    at45db.o(.text) refers to at45db.o(.data) for .data
    at45db.o(.text) refers to at45db.o(.constdata) for .constdata
    fm25cl64.o(.text) refers to stm32f10x_gpio.o(.text) for GPIO_Init
    fm25cl64.o(.text) refers to stm32f10x_spi.o(.text) for SPI_I2S_GetFlagStatus
    fm25cl64.o(.text) refers to fm25cl64.o(.data) for .data
    framringbuf.o(.text) refers to fm25cl64.o(.text) for FM25_ReadArray
    framringbuf.o(.text) refers to crc32.o(.text) for Crc32Eth
    framringbuf.o(.text) refers to control_new.o(.data) for fm_ptr
    framringbuf.o(.text) refers to framringbuf.o(.data) for .data
    framringbuf.o(.text) refers to framringbuf.o(.bss) for .bss
    disk.o(.text) refers to qte_arm.o(.text) for QTimeEvt_armX
    disk.o(.text) refers to crc32.o(.text) for Crc32Eth
    disk.o(.text) refers to fm25cl64.o(.text) for FM25_WriteArray
    disk.o(.text) refers to framringbuf.o(.text) for FramRingBuf_Format
    disk.o(.text) refers to qte_darm.o(.text) for QTimeEvt_disarm
    disk.o(.text) refers to at45db.o(.text) for WritePageImageToBuf2
    disk.o(.text) refers to crc16.o(.text) for MakeCRC16
    disk.o(.text) refers to rt_memclr.o(.text) for __aeabi_memclr
    disk.o(.text) refers to rt_memcpy_v6.o(.text) for __aeabi_memcpy
    disk.o(.text) refers to control_new.o(.constdata) for AO_Control
    disk.o(.text) refers to disk.o(.constdata) for .constdata
    disk.o(.text) refers to control_new.o(.data) for fm_ptr
    disk.o(.text) refers to disk.o(.data) for .data
    disk.o(.text) refers to main.o(.bss) for SysInfo
    disk.o(.text) refers to disk.o(.bss) for .bss
    disk.o(.text) refers to ledindicator.o(.data) for ind_flag
    disk.o(.text) refers to config.o(.bss) for conf_rs485_sensor
    disk.o(.text) refers to config.o(.constdata) for config_server_default
    disk.o(.text) refers to strlcpy.o(.text) for strlcpy
    disk.o(.text) refers to config.o(.constdata) for config_gprs_default
    disk.o(.text) refers to bytestream.o(.text) for LongToBigEndianStream
    disk.o(.text) refers to crc16_teltonika.o(.text) for crc16_teltonika
    disk.o(.text) refers to qf_new.o(.text) for QF_newX_
    disk.o(.text) refers to modem.o(.constdata) for AO_Modem
    disk.o(.text) refers to qa_defer.o(.text) for QActive_recall
    disk.o(.text) refers to qs_dict.o(.text) for QS_obj_dict
    disk.o(.text) refers to qhsm_top.o(.text) for QHsm_top
    disk.o(.text) refers to qs.o(.bss) for QS_priv_
    disk.o(.text) refers to memory_spi.o(.text) for MemorySpi_init
    disk.o(.text) refers to qeq_init.o(.text) for QEQueue_init
    disk.o(.text) refers to qte_ctor.o(.text) for QTimeEvt_ctorX
    disk.o(.text) refers to qa_ctor.o(.text) for QActive_ctor
    disk.o(.constdata) refers to disk.o(.bss) for disk
    io.o(.text) refers to _printf_pad.o(.text) for _printf_pre_padding
    io.o(.text) refers to _printf_percent.o(.ARM.Collect$$_printf_percent$$00000000) for _printf_percent
    io.o(.text) refers to _printf_u.o(.ARM.Collect$$_printf_percent$$0000000A) for _printf_u
    io.o(.text) refers to _printf_f.o(.ARM.Collect$$_printf_percent$$00000003) for _printf_f
    io.o(.text) refers to _printf_dec.o(.text) for _printf_int_dec
    io.o(.text) refers to printf1.o(x$fpl$printf1) for _printf_fp_dec
    io.o(.text) refers to qte_arm.o(.text) for QTimeEvt_armX
    io.o(.text) refers to qf_new.o(.text) for QF_newX_
    io.o(.text) refers to qte_darm.o(.text) for QTimeEvt_disarm
    io.o(.text) refers to fflt_clz.o(x$fpl$ffltu) for __aeabi_ui2f
    io.o(.text) refers to faddsub_clz.o(x$fpl$fadd) for __aeabi_fadd
    io.o(.text) refers to scalbnf.o(x$fpl$scalbnf) for __ARM_scalbnf
    io.o(.text) refers to ffixu.o(x$fpl$ffixu) for __aeabi_f2uiz
    io.o(.text) refers to dflt_clz.o(x$fpl$dfltu) for __aeabi_ui2d
    io.o(.text) refers to scalbn.o(x$fpl$scalbn) for __ARM_scalbn
    io.o(.text) refers to dfixu.o(x$fpl$dfixu) for __aeabi_d2uiz
    io.o(.text) refers to fmul.o(x$fpl$fmul) for __aeabi_fmul
    io.o(.text) refers to f2d.o(x$fpl$f2d) for __aeabi_f2d
    io.o(.text) refers to __2sprintf.o(.text) for __2sprintf
    io.o(.text) refers to config.o(.bss) for conf_rs485_sensor
    io.o(.text) refers to io.o(.data) for .data
    io.o(.text) refers to io.o(.bss) for .bss
    io.o(.text) refers to main.o(.bss) for SysInfo
    io.o(.text) refers to epsilon.o(.data) for Epsilon_cmd_table
    io.o(.text) refers to rf10.o(.data) for RF10_cmd_table
    io.o(.text) refers to tl10.o(.data) for TL10_cmd_table
    io.o(.text) refers to nav_filter.o(.constdata) for AO_NavFilter
    io.o(.text) refers to io.o(.constdata) for .constdata
    io.o(.text) refers to stm32f10x_rcc.o(.text) for RCC_APB2PeriphClockCmd
    io.o(.text) refers to stm32f10x_gpio.o(.text) for GPIO_Init
    io.o(.text) refers to stm32f10x_exti.o(.text) for EXTI_ClearFlag
    io.o(.text) refers to misc.o(.text) for NVIC_Init
    io.o(.text) refers to stm32f10x_tim.o(.text) for TIM_TimeBaseStructInit
    io.o(.text) refers to qs_dict.o(.text) for QS_obj_dict
    io.o(.text) refers to qa_sub.o(.text) for QActive_subscribe
    io.o(.text) refers to stm32f10x_usart.o(.text) for USART_ITConfig
    io.o(.text) refers to qeq_init.o(.text) for QEQueue_init
    io.o(.text) refers to qte_ctor.o(.text) for QTimeEvt_ctorX
    io.o(.text) refers to qa_ctor.o(.text) for QActive_ctor
    io.o(.text) refers to qhsm_top.o(.text) for QHsm_top
    io.o(.text) refers to qs.o(.bss) for QS_priv_
    io.o(.text) refers to qk.o(.data) for QK_intNest_
    io.o(.constdata) refers to io.o(.bss) for io
    crc8.o(.text) refers to crc8.o(.constdata) for .constdata
    ledindicator.o(.text) refers to stm32f10x_gpio.o(.text) for GPIO_Init
    ledindicator.o(.text) refers to io.o(.data) for RS485State
    ledindicator.o(.text) refers to ledindicator.o(.data) for .data
    ledindicator.o(.text) refers to modem.o(.data) for ServerState
    ledindicator.o(.text) refers to config.o(.data) for gprs_ptr
    ledindicator.o(.text) refers to config.o(.bss) for conf
    ledindicator.o(.text) refers to main.o(.bss) for SysInfo
    control_new.o(.text) refers to _printf_percent.o(.ARM.Collect$$_printf_percent$$00000000) for _printf_percent
    control_new.o(.text) refers to _printf_x.o(.ARM.Collect$$_printf_percent$$0000000C) for _printf_x
    control_new.o(.text) refers to _printf_hex_int_ll_ptr.o(.text) for _printf_longlong_hex
    control_new.o(.text) refers to qf_new.o(.text) for QF_newX_
    control_new.o(.text) refers to crc16.o(.text) for MakeCRC16
    control_new.o(.text) refers to __2sprintf.o(.text) for __2sprintf
    control_new.o(.text) refers to control_new.o(.data) for .data
    control_new.o(.text) refers to qhsm_top.o(.text) for QHsm_top
    control_new.o(.text) refers to modem.o(.constdata) for AO_Modem
    control_new.o(.text) refers to control_new.o(.constdata) for .constdata
    control_new.o(.text) refers to disk.o(.constdata) for AO_Disk
    control_new.o(.text) refers to config.o(.bss) for conf
    control_new.o(.text) refers to disk.o(.constdata) for DiskSaveConfigEvt
    control_new.o(.text) refers to main.o(.bss) for SysInfo
    control_new.o(.text) refers to disk.o(.bss) for send_pack_buf
    control_new.o(.text) refers to control_new.o(.bss) for .bss
    control_new.o(.text) refers to config.o(.text) for ConfigPacketMaker
    control_new.o(.text) refers to strlen.o(.text) for strlen
    control_new.o(.text) refers to parsersms.o(.text) for FindPassword
    control_new.o(.text) refers to qte_arm.o(.text) for QTimeEvt_armX
    control_new.o(.text) refers to qte_darm.o(.text) for QTimeEvt_disarm
    control_new.o(.text) refers to stm32f10x_flash.o(.text) for FLASH_Unlock
    control_new.o(.text) refers to crc32.o(.text) for Crc32Eth
    control_new.o(.text) refers to framringbuf.o(.text) for FramRingBuf_size_used
    control_new.o(.text) refers to qs_dict.o(.text) for QS_obj_dict
    control_new.o(.text) refers to qa_sub.o(.text) for QActive_subscribe
    control_new.o(.text) refers to qs.o(.bss) for QS_priv_
    control_new.o(.text) refers to qa_ctor.o(.text) for QActive_ctor
    control_new.o(.text) refers to qte_ctor.o(.text) for QTimeEvt_ctorX
    control_new.o(.constdata) refers to control_new.o(.bss) for control
    epsilon.o(.text) refers to crc8.o(.text) for CalcCrc8
    epsilon.o(.text) refers to io.o(.bss) for IoData
    epsilon.o(.text) refers to epsilon.o(.data) for .data
    epsilon.o(.data) refers to epsilon.o(.text) for EpsilonReadData_tx_handler
    my_time.o(.text) refers to my_time.o(.bss) for .bss
    my_time.o(.text) refers to my_time.o(.constdata) for .constdata
    nmea_parser.o(.text) refers to _printf_percent.o(.ARM.Collect$$_printf_percent$$00000000) for _printf_percent
    nmea_parser.o(.text) refers to _printf_u.o(.ARM.Collect$$_printf_percent$$0000000A) for _printf_u
    nmea_parser.o(.text) refers to _printf_dec.o(.text) for _printf_int_dec
    nmea_parser.o(.text) refers to atoi.o(.text) for atoi
    nmea_parser.o(.text) refers to strncpy.o(.text) for strncpy
    nmea_parser.o(.text) refers to strcmpv7m.o(.text) for strcmp
    nmea_parser.o(.text) refers to strchr.o(.text) for strchr
    nmea_parser.o(.text) refers to nmea_parser.o(.data) for .data
    nmea_parser.o(.text) refers to nmea_parser.o(.bss) for .bss
    nmea_parser.o(.text) refers to atof.o(i.atof) for atof
    nmea_parser.o(.text) refers to d2f.o(x$fpl$d2f) for __aeabi_d2f
    nmea_parser.o(.text) refers to ddiv.o(x$fpl$ddiv) for __aeabi_ddiv
    nmea_parser.o(.text) refers to daddsub_clz.o(x$fpl$dadd) for __aeabi_dadd
    nmea_parser.o(.text) refers to dmul.o(x$fpl$dmul) for __aeabi_dmul
    nmea_parser.o(.text) refers to mktime.o(.text) for mktime
    nmea_parser.o(.text) refers to __2sprintf.o(.text) for __2sprintf
    nmea_parser.o(.text) refers to f2d.o(x$fpl$f2d) for __aeabi_f2d
    nmea_parser.o(.text) refers to qf_new.o(.text) for QF_newX_
    nmea_parser.o(.text) refers to rt_memclr_w.o(.text) for __aeabi_memclr4
    nmea_parser.o(.text) refers to rt_ctype_table.o(.text) for __rt_ctype_table
    nmea_parser.o(.text) refers to strstr.o(.text) for strstr
    nmea_parser.o(.text) refers to main.o(.bss) for SysInfo
    nmea_parser.o(.text) refers to nav_filter.o(.constdata) for AO_NavFilter
    nmea_parser.o(.text) refers to gps_ring_buf.o(.text) for GpsRingBuf_count
    nmea_parser.o(.text) refers to stm32f10x_gpio.o(.text) for GPIO_Init
    nmea_parser.o(.text) refers to stm32f10x_usart.o(.text) for USART_Init
    nmea_parser.o(.text) refers to misc.o(.text) for NVIC_Init
    nmea_parser.o(.text) refers to qs_dict.o(.text) for QS_obj_dict
    nmea_parser.o(.text) refers to qa_sub.o(.text) for QActive_subscribe
    nmea_parser.o(.text) refers to qa_ctor.o(.text) for QActive_ctor
    nmea_parser.o(.text) refers to qhsm_top.o(.text) for QHsm_top
    nmea_parser.o(.text) refers to config.o(.bss) for conf
    nmea_parser.o(.text) refers to qs.o(.bss) for QS_priv_
    nmea_parser.o(.text) refers to nmea_parser.o(.constdata) for .constdata
    nmea_parser.o(.constdata) refers to nmea_parser.o(.bss) for gparser
    nav_filter.o(.text) refers to _printf_percent.o(.ARM.Collect$$_printf_percent$$00000000) for _printf_percent
    nav_filter.o(.text) refers to _printf_s.o(.ARM.Collect$$_printf_percent$$00000014) for _printf_s
    nav_filter.o(.text) refers to _printf_str.o(.text) for _printf_str
    nav_filter.o(.text) refers to qs.o(.text) for QS_beginRec
    nav_filter.o(.text) refers to bsp.o(.text) for QS_onGetTime
    nav_filter.o(.text) refers to qs_.o(.text) for QS_u32_
    nav_filter.o(.text) refers to qs_str.o(.text) for QS_str
    nav_filter.o(.text) refers to dmul.o(x$fpl$dmul) for __aeabi_dmul
    nav_filter.o(.text) refers to dfix.o(x$fpl$dfix) for __aeabi_d2iz
    nav_filter.o(.text) refers to ffixu.o(x$fpl$ffixu) for __aeabi_f2uiz
    nav_filter.o(.text) refers to ffix.o(x$fpl$ffix) for __aeabi_f2iz
    nav_filter.o(.text) refers to fmul.o(x$fpl$fmul) for __aeabi_fmul
    nav_filter.o(.text) refers to qs.o(.bss) for QS_priv_
    nav_filter.o(.text) refers to nav_filter.o(.constdata) for .constdata
    nav_filter.o(.text) refers to main.o(.bss) for SysInfo
    nav_filter.o(.text) refers to nav_filter.o(.data) for .data
    nav_filter.o(.text) refers to config.o(.bss) for conf_rs485_sensor
    nav_filter.o(.text) refers to io.o(.bss) for IoData
    nav_filter.o(.text) refers to qf_new.o(.text) for QF_newX_
    nav_filter.o(.text) refers to faddsub_clz.o(x$fpl$frsb) for __aeabi_frsub
    nav_filter.o(.text) refers to f2d.o(x$fpl$f2d) for __aeabi_f2d
    nav_filter.o(.text) refers to drleqf.o(x$fpl$drleqf) for __aeabi_cdrcmple
    nav_filter.o(.text) refers to faddsub_clz.o(x$fpl$fsub) for __aeabi_fsub
    nav_filter.o(.text) refers to faddsub_clz.o(x$fpl$fadd) for __aeabi_fadd
    nav_filter.o(.text) refers to daddsub_clz.o(x$fpl$dsub) for __aeabi_dsub
    nav_filter.o(.text) refers to pow.o(i.pow) for pow
    nav_filter.o(.text) refers to daddsub_clz.o(x$fpl$dadd) for __aeabi_dadd
    nav_filter.o(.text) refers to sqrt.o(i.sqrt) for sqrt
    nav_filter.o(.text) refers to ddiv.o(x$fpl$ddiv) for __aeabi_ddiv
    nav_filter.o(.text) refers to sin.o(i.sin) for sin
    nav_filter.o(.text) refers to daddsub_clz.o(x$fpl$drsb) for __aeabi_drsub
    nav_filter.o(.text) refers to cos.o(i.cos) for cos
    nav_filter.o(.text) refers to rt_memcpy_w.o(.text) for __aeabi_memcpy4
    nav_filter.o(.text) refers to localtime.o(.text) for localtime
    nav_filter.o(.text) refers to asctime.o(.text) for asctime
    nav_filter.o(.text) refers to __2sprintf.o(.text) for __2sprintf
    nav_filter.o(.text) refers to d2f.o(x$fpl$d2f) for __aeabi_d2f
    nav_filter.o(.text) refers to fleqf.o(x$fpl$fleqf) for __aeabi_cfcmple
    nav_filter.o(.text) refers to nav_filter.o(.bss) for .bss
    nav_filter.o(.text) refers to disk.o(.constdata) for AO_Disk
    nav_filter.o(.text) refers to main.o(.data) for watch_flag
    nav_filter.o(.text) refers to qhsm_top.o(.text) for QHsm_top
    nav_filter.o(.text) refers to dflt_clz.o(x$fpl$dfltu) for __aeabi_ui2d
    nav_filter.o(.text) refers to fflt_clz.o(x$fpl$ffltu) for __aeabi_ui2f
    nav_filter.o(.text) refers to qs_dict.o(.text) for QS_obj_dict
    nav_filter.o(.text) refers to qa_ctor.o(.text) for QActive_ctor
    nav_filter.o(.constdata) refers to nav_filter.o(.bss) for nav_filter
    gps_ring_buf.o(.text) refers to rt_memclr.o(.text) for __aeabi_memclr
    gps_ring_buf.o(.text) refers to gps_ring_buf.o(.data) for .data
    rf10.o(.text) refers to crc8.o(.text) for CalcCrc8
    rf10.o(.text) refers to memcmp.o(.text) for memcmp
    rf10.o(.text) refers to qf_new.o(.text) for QF_newX_
    rf10.o(.text) refers to main.o(.bss) for SysInfo
    rf10.o(.data) refers to rf10.o(.text) for RF10ReadCardId_tx_handler
    tl10.o(.text) refers to crc8.o(.text) for CalcCrc8
    tl10.o(.text) refers to main.o(.bss) for SysInfo
    tl10.o(.text) refers to tl10.o(.data) for .data
    tl10.o(.data) refers to tl10.o(.text) for TL10ReadId_tx_handler
    rt_ctype_table.o(.text) refers to rt_locale_intlibspace.o(.text) for __rt_locale
    rt_ctype_table.o(.text) refers to lc_ctype_c.o(locale$$code) for _get_lc_ctype
    toupper.o(.text) refers to rt_ctype_table.o(.text) for __rt_ctype_table
    __2sprintf.o(.text) refers to _printf_char_common.o(.text) for _printf_char_common
    __2sprintf.o(.text) refers to _sputc.o(.text) for _sputc
    noretval__2sprintf.o(.text) refers to _printf_char_common.o(.text) for _printf_char_common
    noretval__2sprintf.o(.text) refers to _sputc.o(.text) for _sputc
    __printf.o(.text) refers to _printf_percent.o(.ARM.Collect$$_printf_percent$$00000000) for _printf_percent
    _printf_str.o(.text) refers (Special) to _printf_char.o(.text) for _printf_cs_common
    _printf_str.o(.text) refers (Weak) to _printf_pad.o(.text) for _printf_pre_padding
    _printf_str.o(.text) refers (Weak) to _printf_pad.o(.text) for _printf_post_padding
    _printf_dec.o(.text) refers (Weak) to _printf_truncate.o(.text) for _printf_truncate_signed
    _printf_dec.o(.text) refers (Weak) to _printf_truncate.o(.text) for _printf_truncate_unsigned
    _printf_dec.o(.text) refers to _printf_intcommon.o(.text) for _printf_int_common
    _printf_hex_ll.o(.text) refers to _printf_intcommon.o(.text) for _printf_int_common
    _printf_hex_ll.o(.text) refers to _printf_hex_ll.o(.constdata) for .constdata
    _printf_hex_int.o(.text) refers (Weak) to _printf_truncate.o(.text) for _printf_truncate_unsigned
    _printf_hex_int.o(.text) refers to _printf_intcommon.o(.text) for _printf_int_common
    _printf_hex_int.o(.text) refers to _printf_hex_int.o(.constdata) for .constdata
    _printf_hex_int_ll.o(.text) refers to _printf_intcommon.o(.text) for _printf_int_common
    _printf_hex_int_ll.o(.text) refers (Weak) to _printf_truncate.o(.text) for _printf_truncate_unsigned
    _printf_hex_int_ll.o(.text) refers to _printf_hex_int_ll.o(.constdata) for .constdata
    _printf_hex_ptr.o(.text) refers to _printf_intcommon.o(.text) for _printf_int_common
    _printf_hex_ptr.o(.text) refers to _printf_hex_ptr.o(.constdata) for .constdata
    _printf_hex_int_ptr.o(.text) refers to _printf_intcommon.o(.text) for _printf_int_common
    _printf_hex_int_ptr.o(.text) refers (Weak) to _printf_truncate.o(.text) for _printf_truncate_unsigned
    _printf_hex_int_ptr.o(.text) refers to _printf_hex_int_ptr.o(.constdata) for .constdata
    _printf_hex_ll_ptr.o(.text) refers to _printf_intcommon.o(.text) for _printf_int_common
    _printf_hex_ll_ptr.o(.text) refers to _printf_hex_ll_ptr.o(.constdata) for .constdata
    _printf_hex_int_ll_ptr.o(.text) refers to _printf_intcommon.o(.text) for _printf_int_common
    _printf_hex_int_ll_ptr.o(.text) refers (Weak) to _printf_truncate.o(.text) for _printf_truncate_unsigned
    _printf_hex_int_ll_ptr.o(.text) refers to _printf_hex_int_ll_ptr.o(.constdata) for .constdata
    __printf_flags.o(.text) refers to _printf_percent.o(.ARM.Collect$$_printf_percent$$00000000) for _printf_percent
    __printf_flags.o(.text) refers to __printf_flags.o(.constdata) for .constdata
    __printf_ss.o(.text) refers to _printf_percent.o(.ARM.Collect$$_printf_percent$$00000000) for _printf_percent
    __printf_flags_ss.o(.text) refers to _printf_percent.o(.ARM.Collect$$_printf_percent$$00000000) for _printf_percent
    __printf_flags_ss.o(.text) refers to __printf_flags_ss.o(.constdata) for .constdata
    __printf_wp.o(.text) refers to __printf_wp.o(i._is_digit) for _is_digit
    __printf_wp.o(.text) refers to _printf_percent.o(.ARM.Collect$$_printf_percent$$00000000) for _printf_percent
    __printf_flags_wp.o(.text) refers to __printf_wp.o(i._is_digit) for _is_digit
    __printf_flags_wp.o(.text) refers to _printf_percent.o(.ARM.Collect$$_printf_percent$$00000000) for _printf_percent
    __printf_flags_wp.o(.text) refers to __printf_flags_wp.o(.constdata) for .constdata
    __printf_ss_wp.o(.text) refers to __printf_wp.o(i._is_digit) for _is_digit
    __printf_ss_wp.o(.text) refers to _printf_percent.o(.ARM.Collect$$_printf_percent$$00000000) for _printf_percent
    __printf_flags_ss_wp.o(.text) refers to __printf_wp.o(i._is_digit) for _is_digit
    __printf_flags_ss_wp.o(.text) refers to _printf_percent.o(.ARM.Collect$$_printf_percent$$00000000) for _printf_percent
    __printf_flags_ss_wp.o(.text) refers to __printf_flags_ss_wp.o(.constdata) for .constdata
    _printf_s.o(.ARM.Collect$$_printf_percent$$00000014) refers (Weak) to _printf_char.o(.text) for _printf_string
    _printf_x.o(.ARM.Collect$$_printf_percent$$0000000C) refers (Weak) to _printf_hex_int_ll_ptr.o(.text) for _printf_int_hex
    _printf_d.o(.ARM.Collect$$_printf_percent$$00000009) refers (Weak) to _printf_dec.o(.text) for _printf_int_dec
    _printf_u.o(.ARM.Collect$$_printf_percent$$0000000A) refers (Weak) to _printf_dec.o(.text) for _printf_int_dec
    _printf_f.o(.ARM.Collect$$_printf_percent$$00000003) refers (Weak) to printf1.o(x$fpl$printf1) for _printf_fp_dec
    _printf_percent.o(.ARM.Collect$$_printf_percent$$00000000) refers (Special) to _printf_percent_end.o(.ARM.Collect$$_printf_percent$$00000017) for _printf_percent_end
    atoi.o(.text) refers to rt_errno_addr_intlibspace.o(.text) for __aeabi_errno_addr
    atoi.o(.text) refers to strtol.o(.text) for strtol
    rt_memcpy_v6.o(.text) refers to rt_memcpy_w.o(.text) for __aeabi_memcpy4
    rt_memclr.o(.text) refers to rt_memclr_w.o(.text) for _memset_w
    strncpy.o(.text) refers to rt_memclr.o(.text) for __aeabi_memclr
    asctime.o(.text) refers to asctime_internal.o(.text) for _asctime_r
    asctime.o(.text) refers to asctime.o(.bss) for .bss
    localtime.o(.text) refers to localtime_internal.o(.text) for _localtime_r
    localtime.o(.text) refers to localtime.o(.bss) for .bss
    mktime.o(.text) refers to _monlen.o(.constdata) for _monlen
    __main.o(!!!main) refers to __rtentry.o(.ARM.Collect$$rtentry$$00000000) for __rt_entry
    d2f.o(x$fpl$d2f) refers (Special) to usenofp.o(x$fpl$usenofp) for __I$use$fp
    d2f.o(x$fpl$d2f) refers to fretinf.o(x$fpl$fretinf) for __fpl_fretinf
    d2f.o(x$fpl$d2f) refers to dnaninf.o(x$fpl$dnaninf) for __fpl_dnaninf
    daddsub_clz.o(x$fpl$dadd) refers (Special) to usenofp.o(x$fpl$usenofp) for __I$use$fp
    daddsub_clz.o(x$fpl$dadd) refers to daddsub_clz.o(x$fpl$dsub) for _dsub1
    daddsub_clz.o(x$fpl$dadd) refers to dretinf.o(x$fpl$dretinf) for __fpl_dretinf
    daddsub_clz.o(x$fpl$dadd) refers to dnaninf.o(x$fpl$dnaninf) for __fpl_dnaninf
    daddsub_clz.o(x$fpl$drsb) refers (Special) to usenofp.o(x$fpl$usenofp) for __I$use$fp
    daddsub_clz.o(x$fpl$drsb) refers to daddsub_clz.o(x$fpl$dadd) for _dadd1
    daddsub_clz.o(x$fpl$drsb) refers to daddsub_clz.o(x$fpl$dsub) for _dsub1
    daddsub_clz.o(x$fpl$dsub) refers (Special) to usenofp.o(x$fpl$usenofp) for __I$use$fp
    daddsub_clz.o(x$fpl$dsub) refers to daddsub_clz.o(x$fpl$dadd) for _dadd1
    daddsub_clz.o(x$fpl$dsub) refers to dnaninf.o(x$fpl$dnaninf) for __fpl_dnaninf
    ddiv.o(x$fpl$drdiv) refers (Special) to usenofp.o(x$fpl$usenofp) for __I$use$fp
    ddiv.o(x$fpl$drdiv) refers to ddiv.o(x$fpl$ddiv) for ddiv_entry
    ddiv.o(x$fpl$ddiv) refers (Special) to usenofp.o(x$fpl$usenofp) for __I$use$fp
    ddiv.o(x$fpl$ddiv) refers to dretinf.o(x$fpl$dretinf) for __fpl_dretinf
    ddiv.o(x$fpl$ddiv) refers to dnaninf.o(x$fpl$dnaninf) for __fpl_dnaninf
    dfix.o(x$fpl$dfix) refers (Special) to usenofp.o(x$fpl$usenofp) for __I$use$fp
    dfix.o(x$fpl$dfix) refers to dnaninf.o(x$fpl$dnaninf) for __fpl_dnaninf
    dfix.o(x$fpl$dfixr) refers (Special) to usenofp.o(x$fpl$usenofp) for __I$use$fp
    dfix.o(x$fpl$dfixr) refers to dnaninf.o(x$fpl$dnaninf) for __fpl_dnaninf
    dfixu.o(x$fpl$dfixu) refers (Special) to usenofp.o(x$fpl$usenofp) for __I$use$fp
    dfixu.o(x$fpl$dfixu) refers to dnaninf.o(x$fpl$dnaninf) for __fpl_dnaninf
    dfixu.o(x$fpl$dfixur) refers (Special) to usenofp.o(x$fpl$usenofp) for __I$use$fp
    dfixu.o(x$fpl$dfixur) refers to dnaninf.o(x$fpl$dnaninf) for __fpl_dnaninf
    dflt_clz.o(x$fpl$dfltu) refers (Special) to usenofp.o(x$fpl$usenofp) for __I$use$fp
    dflt_clz.o(x$fpl$dflt) refers (Special) to usenofp.o(x$fpl$usenofp) for __I$use$fp
    dflt_clz.o(x$fpl$dfltn) refers (Special) to usenofp.o(x$fpl$usenofp) for __I$use$fp
    dmul.o(x$fpl$dmul) refers (Special) to usenofp.o(x$fpl$usenofp) for __I$use$fp
    dmul.o(x$fpl$dmul) refers to dretinf.o(x$fpl$dretinf) for __fpl_dretinf
    dmul.o(x$fpl$dmul) refers to dnaninf.o(x$fpl$dnaninf) for __fpl_dnaninf
    drleqf.o(x$fpl$drleqf) refers (Special) to usenofp.o(x$fpl$usenofp) for __I$use$fp
    drleqf.o(x$fpl$drleqf) refers to dleqf.o(x$fpl$dleqf) for __fpl_dcmple_InfNaN
    f2d.o(x$fpl$f2d) refers (Special) to usenofp.o(x$fpl$usenofp) for __I$use$fp
    f2d.o(x$fpl$f2d) refers to fnaninf.o(x$fpl$fnaninf) for __fpl_fnaninf
    f2d.o(x$fpl$f2d) refers to dretinf.o(x$fpl$dretinf) for __fpl_dretinf
    faddsub_clz.o(x$fpl$fadd) refers (Special) to usenofp.o(x$fpl$usenofp) for __I$use$fp
    faddsub_clz.o(x$fpl$fadd) refers to faddsub_clz.o(x$fpl$fsub) for _fsub1
    faddsub_clz.o(x$fpl$fadd) refers to fretinf.o(x$fpl$fretinf) for __fpl_fretinf
    faddsub_clz.o(x$fpl$fadd) refers to fnaninf.o(x$fpl$fnaninf) for __fpl_fnaninf
    faddsub_clz.o(x$fpl$frsb) refers (Special) to usenofp.o(x$fpl$usenofp) for __I$use$fp
    faddsub_clz.o(x$fpl$frsb) refers to faddsub_clz.o(x$fpl$fadd) for _fadd1
    faddsub_clz.o(x$fpl$frsb) refers to faddsub_clz.o(x$fpl$fsub) for _fsub1
    faddsub_clz.o(x$fpl$fsub) refers (Special) to usenofp.o(x$fpl$usenofp) for __I$use$fp
    faddsub_clz.o(x$fpl$fsub) refers to faddsub_clz.o(x$fpl$fadd) for _fadd1
    faddsub_clz.o(x$fpl$fsub) refers to fnaninf.o(x$fpl$fnaninf) for __fpl_fnaninf
    ffix.o(x$fpl$ffix) refers (Special) to usenofp.o(x$fpl$usenofp) for __I$use$fp
    ffix.o(x$fpl$ffix) refers to fnaninf.o(x$fpl$fnaninf) for __fpl_fnaninf
    ffix.o(x$fpl$ffixr) refers (Special) to usenofp.o(x$fpl$usenofp) for __I$use$fp
    ffix.o(x$fpl$ffixr) refers to fnaninf.o(x$fpl$fnaninf) for __fpl_fnaninf
    ffixu.o(x$fpl$ffixu) refers (Special) to usenofp.o(x$fpl$usenofp) for __I$use$fp
    ffixu.o(x$fpl$ffixu) refers to fnaninf.o(x$fpl$fnaninf) for __fpl_fnaninf
    ffixu.o(x$fpl$ffixur) refers (Special) to usenofp.o(x$fpl$usenofp) for __I$use$fp
    ffixu.o(x$fpl$ffixur) refers to fnaninf.o(x$fpl$fnaninf) for __fpl_fnaninf
    fflt_clz.o(x$fpl$ffltu) refers (Special) to usenofp.o(x$fpl$usenofp) for __I$use$fp
    fflt_clz.o(x$fpl$fflt) refers (Special) to usenofp.o(x$fpl$usenofp) for __I$use$fp
    fflt_clz.o(x$fpl$ffltn) refers (Special) to usenofp.o(x$fpl$usenofp) for __I$use$fp
    fleqf.o(x$fpl$fleqf) refers (Special) to usenofp.o(x$fpl$usenofp) for __I$use$fp
    fleqf.o(x$fpl$fleqf) refers to fnaninf.o(x$fpl$fnaninf) for __fpl_fnaninf
    fleqf.o(x$fpl$fleqf) refers to fcmpi.o(x$fpl$fcmpinf) for __fpl_fcmp_Inf
    fmul.o(x$fpl$fmul) refers (Special) to usenofp.o(x$fpl$usenofp) for __I$use$fp
    fmul.o(x$fpl$fmul) refers to fretinf.o(x$fpl$fretinf) for __fpl_fretinf
    fmul.o(x$fpl$fmul) refers to fnaninf.o(x$fpl$fnaninf) for __fpl_fnaninf
    printf1.o(x$fpl$printf1) refers to _printf_fp_dec.o(.text) for _printf_fp_dec_real
    scalbn.o(x$fpl$scalbn) refers (Special) to usenofp.o(x$fpl$usenofp) for __I$use$fp
    scalbn.o(x$fpl$scalbn) refers to dcheck1.o(x$fpl$dcheck1) for __fpl_dcheck_NaN1
    scalbnf.o(x$fpl$scalbnf) refers (Special) to usenofp.o(x$fpl$usenofp) for __I$use$fp
    scalbnf.o(x$fpl$scalbnf) refers to fcheck1.o(x$fpl$fcheck1) for __fpl_fcheck_NaN1
    atof.o(i.__softfp_atof) refers (Special) to usenofp.o(x$fpl$usenofp) for __I$use$fp
    atof.o(i.__softfp_atof) refers to _rserrno.o(.text) for __read_errno
    atof.o(i.__softfp_atof) refers to strtod.o(.text) for __strtod_int
    atof.o(i.atof) refers (Special) to usenofp.o(x$fpl$usenofp) for __I$use$fp
    atof.o(i.atof) refers to _rserrno.o(.text) for __read_errno
    atof.o(i.atof) refers to strtod.o(.text) for __strtod_int
    cos.o(i.__softfp_cos) refers (Special) to usenofp.o(x$fpl$usenofp) for __I$use$fp
    cos.o(i.__softfp_cos) refers to cos.o(i.cos) for cos
    cos.o(i.cos) refers (Special) to usenofp.o(x$fpl$usenofp) for __I$use$fp
    cos.o(i.cos) refers to _rserrno.o(.text) for __set_errno
    cos.o(i.cos) refers to dunder.o(i.__mathlib_dbl_invalid) for __mathlib_dbl_invalid
    cos.o(i.cos) refers to dunder.o(i.__mathlib_dbl_infnan) for __mathlib_dbl_infnan
    cos.o(i.cos) refers to rred.o(i.__ieee754_rem_pio2) for __ieee754_rem_pio2
    cos.o(i.cos) refers to sin_i.o(i.__kernel_sin) for __kernel_sin
    cos.o(i.cos) refers to cos_i.o(i.__kernel_cos) for __kernel_cos
    cos_x.o(i.____softfp_cos$lsc) refers (Special) to usenofp.o(x$fpl$usenofp) for __I$use$fp
    cos_x.o(i.____softfp_cos$lsc) refers to cos_x.o(i.__cos$lsc) for __cos$lsc
    cos_x.o(i.__cos$lsc) refers (Special) to usenofp.o(x$fpl$usenofp) for __I$use$fp
    cos_x.o(i.__cos$lsc) refers to _rserrno.o(.text) for __set_errno
    cos_x.o(i.__cos$lsc) refers to dunder.o(i.__mathlib_dbl_infnan) for __mathlib_dbl_infnan
    cos_x.o(i.__cos$lsc) refers to rred.o(i.__ieee754_rem_pio2) for __ieee754_rem_pio2
    cos_x.o(i.__cos$lsc) refers to sin_i.o(i.__kernel_sin) for __kernel_sin
    cos_x.o(i.__cos$lsc) refers to cos_i.o(i.__kernel_cos) for __kernel_cos
    pow.o(i.__softfp_pow) refers (Special) to usenofp.o(x$fpl$usenofp) for __I$use$fp
    pow.o(i.__softfp_pow) refers to pow.o(i.pow) for pow
    pow.o(i.pow) refers (Special) to usenofp.o(x$fpl$usenofp) for __I$use$fp
    pow.o(i.pow) refers to dunder.o(i.__mathlib_dbl_infnan2) for __mathlib_dbl_infnan2
    pow.o(i.pow) refers to _rserrno.o(.text) for __set_errno
    pow.o(i.pow) refers to dunder.o(i.__mathlib_dbl_divzero) for __mathlib_dbl_divzero
    pow.o(i.pow) refers to dunder.o(i.__mathlib_dbl_overflow) for __mathlib_dbl_overflow
    pow.o(i.pow) refers to ddiv.o(x$fpl$ddiv) for __aeabi_ddiv
    pow.o(i.pow) refers to sqrt.o(i.sqrt) for sqrt
    pow.o(i.pow) refers to dmul.o(x$fpl$dmul) for __aeabi_dmul
    pow.o(i.pow) refers to dunder.o(i.__mathlib_dbl_invalid) for __mathlib_dbl_invalid
    pow.o(i.pow) refers to dunder.o(i.__mathlib_dbl_underflow) for __mathlib_dbl_underflow
    pow.o(i.pow) refers to daddsub_clz.o(x$fpl$dsub) for __aeabi_dsub
    pow.o(i.pow) refers to scalbn.o(x$fpl$scalbn) for __ARM_scalbn
    pow.o(i.pow) refers to daddsub_clz.o(x$fpl$drsb) for __aeabi_drsub
    pow.o(i.pow) refers to daddsub_clz.o(x$fpl$dadd) for __aeabi_dadd
    pow.o(i.pow) refers to qnan.o(.constdata) for __mathlib_zero
    pow.o(i.pow) refers to poly.o(i.__kernel_poly) for __kernel_poly
    pow.o(i.pow) refers to dflt_clz.o(x$fpl$dflt) for __aeabi_i2d
    pow.o(i.pow) refers to drleqf.o(x$fpl$drleqf) for __aeabi_cdrcmple
    pow.o(i.pow) refers to pow.o(.constdata) for .constdata
    pow.o(i.pow) refers to fpclassify.o(i.__ARM_fpclassify) for __ARM_fpclassify
    pow.o(.constdata) refers (Special) to usenofp.o(x$fpl$usenofp) for __I$use$fp
    pow_x.o(i.____softfp_pow$lsc) refers (Special) to usenofp.o(x$fpl$usenofp) for __I$use$fp
    pow_x.o(i.____softfp_pow$lsc) refers to pow_x.o(i.__pow$lsc) for __pow$lsc
    pow_x.o(i.__pow$lsc) refers (Special) to usenofp.o(x$fpl$usenofp) for __I$use$fp
    pow_x.o(i.__pow$lsc) refers to dunder.o(i.__mathlib_dbl_infnan2) for __mathlib_dbl_infnan2
    pow_x.o(i.__pow$lsc) refers to _rserrno.o(.text) for __set_errno
    pow_x.o(i.__pow$lsc) refers to ddiv.o(x$fpl$ddiv) for __aeabi_ddiv
    pow_x.o(i.__pow$lsc) refers to sqrt.o(i.sqrt) for sqrt
    pow_x.o(i.__pow$lsc) refers to dmul.o(x$fpl$dmul) for __aeabi_dmul
    pow_x.o(i.__pow$lsc) refers to dflt_clz.o(x$fpl$dflt) for __aeabi_i2d
    pow_x.o(i.__pow$lsc) refers to daddsub_clz.o(x$fpl$dsub) for __aeabi_dsub
    pow_x.o(i.__pow$lsc) refers to scalbn.o(x$fpl$scalbn) for __ARM_scalbn
    pow_x.o(i.__pow$lsc) refers to daddsub_clz.o(x$fpl$drsb) for __aeabi_drsub
    pow_x.o(i.__pow$lsc) refers to daddsub_clz.o(x$fpl$dadd) for __aeabi_dadd
    pow_x.o(i.__pow$lsc) refers to qnan.o(.constdata) for __mathlib_zero
    pow_x.o(i.__pow$lsc) refers to pow_x.o(.constdata) for .constdata
    pow_x.o(i.__pow$lsc) refers to poly.o(i.__kernel_poly) for __kernel_poly
    pow_x.o(i.__pow$lsc) refers to drleqf.o(x$fpl$drleqf) for __aeabi_cdrcmple
    pow_x.o(.constdata) refers (Special) to usenofp.o(x$fpl$usenofp) for __I$use$fp
    sin.o(i.__softfp_sin) refers (Special) to usenofp.o(x$fpl$usenofp) for __I$use$fp
    sin.o(i.__softfp_sin) refers to sin.o(i.sin) for sin
    sin.o(i.sin) refers (Special) to usenofp.o(x$fpl$usenofp) for __I$use$fp
    sin.o(i.sin) refers to _rserrno.o(.text) for __set_errno
    sin.o(i.sin) refers to dunder.o(i.__mathlib_dbl_invalid) for __mathlib_dbl_invalid
    sin.o(i.sin) refers to dunder.o(i.__mathlib_dbl_infnan) for __mathlib_dbl_infnan
    sin.o(i.sin) refers to rred.o(i.__ieee754_rem_pio2) for __ieee754_rem_pio2
    sin.o(i.sin) refers to cos_i.o(i.__kernel_cos) for __kernel_cos
    sin.o(i.sin) refers to sin_i.o(i.__kernel_sin) for __kernel_sin
    sin_x.o(i.____softfp_sin$lsc) refers (Special) to usenofp.o(x$fpl$usenofp) for __I$use$fp
    sin_x.o(i.____softfp_sin$lsc) refers to sin_x.o(i.__sin$lsc) for __sin$lsc
    sin_x.o(i.__sin$lsc) refers (Special) to usenofp.o(x$fpl$usenofp) for __I$use$fp
    sin_x.o(i.__sin$lsc) refers to _rserrno.o(.text) for __set_errno
    sin_x.o(i.__sin$lsc) refers to dunder.o(i.__mathlib_dbl_infnan) for __mathlib_dbl_infnan
    sin_x.o(i.__sin$lsc) refers to rred.o(i.__ieee754_rem_pio2) for __ieee754_rem_pio2
    sin_x.o(i.__sin$lsc) refers to cos_i.o(i.__kernel_cos) for __kernel_cos
    sin_x.o(i.__sin$lsc) refers to sin_i.o(i.__kernel_sin) for __kernel_sin
    sqrt.o(i.__softfp_sqrt) refers (Special) to usenofp.o(x$fpl$usenofp) for __I$use$fp
    sqrt.o(i.__softfp_sqrt) refers to dsqrt_noumaal.o(x$fpl$dsqrt) for _dsqrt
    sqrt.o(i.__softfp_sqrt) refers to _rserrno.o(.text) for __set_errno
    sqrt.o(i.sqrt) refers (Special) to usenofp.o(x$fpl$usenofp) for __I$use$fp
    sqrt.o(i.sqrt) refers to dsqrt_noumaal.o(x$fpl$dsqrt) for _dsqrt
    sqrt.o(i.sqrt) refers to _rserrno.o(.text) for __set_errno
    sqrt_x.o(i.____softfp_sqrt$lsc) refers (Special) to usenofp.o(x$fpl$usenofp) for __I$use$fp
    sqrt_x.o(i.____softfp_sqrt$lsc) refers to dleqf.o(x$fpl$dleqf) for __aeabi_cdcmple
    sqrt_x.o(i.____softfp_sqrt$lsc) refers to _rserrno.o(.text) for __set_errno
    sqrt_x.o(i.____softfp_sqrt$lsc) refers to dsqrt_noumaal.o(x$fpl$dsqrt) for _dsqrt
    sqrt_x.o(i.__sqrt$lsc) refers (Special) to usenofp.o(x$fpl$usenofp) for __I$use$fp
    sqrt_x.o(i.__sqrt$lsc) refers to dleqf.o(x$fpl$dleqf) for __aeabi_cdcmple
    sqrt_x.o(i.__sqrt$lsc) refers to _rserrno.o(.text) for __set_errno
    sqrt_x.o(i.__sqrt$lsc) refers to dsqrt_noumaal.o(x$fpl$dsqrt) for _dsqrt
    __rtentry.o(.ARM.Collect$$rtentry$$00000000) refers (Special) to __rtentry2.o(.ARM.Collect$$rtentry$$0000000A) for __rt_entry_li
    __rtentry.o(.ARM.Collect$$rtentry$$00000000) refers (Special) to __rtentry2.o(.ARM.Collect$$rtentry$$0000000D) for __rt_entry_main
    __rtentry.o(.ARM.Collect$$rtentry$$00000000) refers (Special) to __rtentry2.o(.ARM.Collect$$rtentry$$0000000C) for __rt_entry_postli_1
    __rtentry.o(.ARM.Collect$$rtentry$$00000000) refers (Special) to __rtentry2.o(.ARM.Collect$$rtentry$$00000009) for __rt_entry_postsh_1
    __rtentry.o(.ARM.Collect$$rtentry$$00000000) refers (Special) to __rtentry2.o(.ARM.Collect$$rtentry$$00000002) for __rt_entry_presh_1
    __rtentry.o(.ARM.Collect$$rtentry$$00000000) refers (Special) to __rtentry4.o(.ARM.Collect$$rtentry$$00000004) for __rt_entry_sh
    rt_locale.o(.text) refers to rt_locale.o(.bss) for __rt_locale_data
    rt_locale_intlibspace.o(.text) refers to libspace.o(.bss) for __libspace_start
    rt_errno_addr.o(.text) refers to rt_errno_addr.o(.bss) for __aeabi_errno_addr_data
    rt_errno_addr_intlibspace.o(.text) refers to libspace.o(.bss) for __libspace_start
    _rserrno.o(.text) refers to rt_errno_addr_intlibspace.o(.text) for __aeabi_errno_addr
    _printf_intcommon.o(.text) refers (Weak) to _printf_pad.o(.text) for _printf_pre_padding
    _printf_intcommon.o(.text) refers (Weak) to _printf_pad.o(.text) for _printf_pre_padding
    _printf_intcommon.o(.text) refers (Weak) to _printf_pad.o(.text) for _printf_post_padding
    _printf_fp_dec.o(.text) refers (Special) to usenofp.o(x$fpl$usenofp) for __I$use$fp
    _printf_fp_dec.o(.text) refers (Special) to lc_numeric_c.o(locale$$code) for _get_lc_numeric
    _printf_fp_dec.o(.text) refers to bigflt0.o(.text) for _btod_etento
    _printf_fp_dec.o(.text) refers to btod.o(CL$$btod_d2e) for _btod_d2e
    _printf_fp_dec.o(.text) refers to btod.o(CL$$btod_ediv) for _btod_ediv
    _printf_fp_dec.o(.text) refers to btod.o(CL$$btod_emul) for _btod_emul
    _printf_fp_dec.o(.text) refers to lludiv10.o(.text) for _ll_udiv10
    _printf_fp_dec.o(.text) refers to fpclassify.o(i.__ARM_fpclassify) for __ARM_fpclassify
    _printf_fp_dec.o(.text) refers to _printf_fp_infnan.o(.text) for _printf_fp_infnan
    _printf_fp_dec.o(.text) refers (Weak) to _printf_pad.o(.text) for _printf_pre_padding
    _printf_fp_dec.o(.text) refers (Weak) to _printf_pad.o(.text) for _printf_pre_padding
    _printf_fp_dec.o(.text) refers to rt_locale_intlibspace.o(.text) for __rt_locale
    _printf_fp_dec.o(.text) refers (Weak) to _printf_pad.o(.text) for _printf_post_padding
    _printf_char_common.o(.text) refers to __printf_flags_ss_wp.o(.text) for __printf
    _printf_char.o(.text) refers (Weak) to _printf_str.o(.text) for _printf_str
    strtod.o(.text) refers (Special) to lc_numeric_c.o(locale$$code) for _get_lc_numeric
    strtod.o(.text) refers to scanf1.o(x$fpl$scanf1) for _scanf_real
    strtod.o(.text) refers to _sgetc.o(.text) for _sgetc
    strtod.o(.text) refers to isspace.o(.text) for isspace
    strtol.o(.text) refers to rt_ctype_table.o(.text) for __rt_ctype_table
    strtol.o(.text) refers to _strtoul.o(.text) for _strtoul
    strtol.o(.text) refers to rt_errno_addr_intlibspace.o(.text) for __aeabi_errno_addr
    lc_ctype_c.o(locale$$data) refers (Special) to libinit2.o(.ARM.Collect$$libinit$$00000012) for __rt_lib_init_lc_ctype_2
    lc_ctype_c.o(locale$$code) refers (Special) to libinit2.o(.ARM.Collect$$libinit$$00000012) for __rt_lib_init_lc_ctype_2
    lc_ctype_c.o(locale$$code) refers to strcmpv7m.o(.text) for strcmp
    lc_ctype_c.o(locale$$code) refers to lc_ctype_c.o(locale$$data) for __lcctype_c_name
    asctime_internal.o(.text) refers (Special) to lc_time_c.o(locale$$code) for _get_lc_time
    asctime_internal.o(.text) refers to rt_locale_intlibspace.o(.text) for __rt_locale
    asctime_internal.o(.text) refers to sprintf.o(.text) for sprintf
    localtime_internal.o(.text) refers to rt_memclr_w.o(.text) for __aeabi_memclr4
    localtime_internal.o(.text) refers to _monlen.o(.constdata) for _monlen
    dcheck1.o(x$fpl$dcheck1) refers (Special) to usenofp.o(x$fpl$usenofp) for __I$use$fp
    dcheck1.o(x$fpl$dcheck1) refers to retnan.o(x$fpl$retnan) for __fpl_return_NaN
    dleqf.o(x$fpl$dleqf) refers (Special) to usenofp.o(x$fpl$usenofp) for __I$use$fp
    dleqf.o(x$fpl$dleqf) refers to dnaninf.o(x$fpl$dnaninf) for __fpl_dnaninf
    dleqf.o(x$fpl$dleqf) refers to dcmpi.o(x$fpl$dcmpinf) for __fpl_dcmp_Inf
    dnaninf.o(x$fpl$dnaninf) refers (Special) to usenofp.o(x$fpl$usenofp) for __I$use$fp
    dretinf.o(x$fpl$dretinf) refers (Special) to usenofp.o(x$fpl$usenofp) for __I$use$fp
    dsqrt_noumaal.o(x$fpl$dsqrt) refers (Special) to usenofp.o(x$fpl$usenofp) for __I$use$fp
    dsqrt_noumaal.o(x$fpl$dsqrt) refers to dnaninf.o(x$fpl$dnaninf) for __fpl_dnaninf
    fcheck1.o(x$fpl$fcheck1) refers (Special) to usenofp.o(x$fpl$usenofp) for __I$use$fp
    fcheck1.o(x$fpl$fcheck1) refers to retnan.o(x$fpl$retnan) for __fpl_return_NaN
    fcmpi.o(x$fpl$fcmpinf) refers (Special) to usenofp.o(x$fpl$usenofp) for __I$use$fp
    fnaninf.o(x$fpl$fnaninf) refers (Special) to usenofp.o(x$fpl$usenofp) for __I$use$fp
    fretinf.o(x$fpl$fretinf) refers (Special) to usenofp.o(x$fpl$usenofp) for __I$use$fp
    cos_i.o(i.__kernel_cos) refers (Special) to usenofp.o(x$fpl$usenofp) for __I$use$fp
    cos_i.o(i.__kernel_cos) refers to dfix.o(x$fpl$dfix) for __aeabi_d2iz
    cos_i.o(i.__kernel_cos) refers to dmul.o(x$fpl$dmul) for __aeabi_dmul
    cos_i.o(i.__kernel_cos) refers to poly.o(i.__kernel_poly) for __kernel_poly
    cos_i.o(i.__kernel_cos) refers to daddsub_clz.o(x$fpl$dsub) for __aeabi_dsub
    cos_i.o(i.__kernel_cos) refers to scalbn.o(x$fpl$scalbn) for __ARM_scalbn
    cos_i.o(i.__kernel_cos) refers to daddsub_clz.o(x$fpl$drsb) for __aeabi_drsub
    cos_i.o(i.__kernel_cos) refers to cos_i.o(.constdata) for .constdata
    cos_i.o(.constdata) refers (Special) to usenofp.o(x$fpl$usenofp) for __I$use$fp
    dunder.o(i.__mathlib_dbl_divzero) refers to ddiv.o(x$fpl$ddiv) for __aeabi_ddiv
    dunder.o(i.__mathlib_dbl_infnan) refers to scalbn.o(x$fpl$scalbn) for __ARM_scalbn
    dunder.o(i.__mathlib_dbl_infnan2) refers to daddsub_clz.o(x$fpl$dadd) for __aeabi_dadd
    dunder.o(i.__mathlib_dbl_invalid) refers to ddiv.o(x$fpl$ddiv) for __aeabi_ddiv
    dunder.o(i.__mathlib_dbl_overflow) refers to scalbn.o(x$fpl$scalbn) for __ARM_scalbn
    dunder.o(i.__mathlib_dbl_posinfnan) refers to dmul.o(x$fpl$dmul) for __aeabi_dmul
    dunder.o(i.__mathlib_dbl_underflow) refers to scalbn.o(x$fpl$scalbn) for __ARM_scalbn
    fpclassify.o(i.__ARM_fpclassify) refers (Special) to usenofp.o(x$fpl$usenofp) for __I$use$fp
    poly.o(i.__kernel_poly) refers (Special) to usenofp.o(x$fpl$usenofp) for __I$use$fp
    poly.o(i.__kernel_poly) refers to dmul.o(x$fpl$dmul) for __aeabi_dmul
    poly.o(i.__kernel_poly) refers to daddsub_clz.o(x$fpl$dadd) for __aeabi_dadd
    qnan.o(.constdata) refers (Special) to usenofp.o(x$fpl$usenofp) for __I$use$fp
    rred.o(i.__ieee754_rem_pio2) refers (Special) to usenofp.o(x$fpl$usenofp) for __I$use$fp
    rred.o(i.__ieee754_rem_pio2) refers to daddsub_clz.o(x$fpl$dsub) for __aeabi_dsub
    rred.o(i.__ieee754_rem_pio2) refers to daddsub_clz.o(x$fpl$dadd) for __aeabi_dadd
    rred.o(i.__ieee754_rem_pio2) refers to dmul.o(x$fpl$dmul) for __aeabi_dmul
    rred.o(i.__ieee754_rem_pio2) refers to dfix.o(x$fpl$dfix) for __aeabi_d2iz
    rred.o(i.__ieee754_rem_pio2) refers to dflt_clz.o(x$fpl$dflt) for __aeabi_i2d
    rred.o(i.__ieee754_rem_pio2) refers to daddsub_clz.o(x$fpl$drsb) for __aeabi_drsub
    rred.o(i.__ieee754_rem_pio2) refers to dflt_clz.o(x$fpl$dfltu) for __aeabi_ui2d
    rred.o(i.__ieee754_rem_pio2) refers to scalbn.o(x$fpl$scalbn) for __ARM_scalbn
    rred.o(i.__ieee754_rem_pio2) refers to rred.o(.constdata) for .constdata
    rred.o(i.__use_accurate_range_reduction) refers (Special) to usenofp.o(x$fpl$usenofp) for __I$use$fp
    rred.o(.constdata) refers (Special) to usenofp.o(x$fpl$usenofp) for __I$use$fp
    sin_i.o(i.__kernel_sin) refers (Special) to usenofp.o(x$fpl$usenofp) for __I$use$fp
    sin_i.o(i.__kernel_sin) refers to fpclassify.o(i.__ARM_fpclassify) for __ARM_fpclassify
    sin_i.o(i.__kernel_sin) refers to dunder.o(i.__mathlib_dbl_underflow) for __mathlib_dbl_underflow
    sin_i.o(i.__kernel_sin) refers to dmul.o(x$fpl$dmul) for __aeabi_dmul
    sin_i.o(i.__kernel_sin) refers to poly.o(i.__kernel_poly) for __kernel_poly
    sin_i.o(i.__kernel_sin) refers to scalbn.o(x$fpl$scalbn) for __ARM_scalbn
    sin_i.o(i.__kernel_sin) refers to daddsub_clz.o(x$fpl$dsub) for __aeabi_dsub
    sin_i.o(i.__kernel_sin) refers to daddsub_clz.o(x$fpl$drsb) for __aeabi_drsub
    sin_i.o(i.__kernel_sin) refers to daddsub_clz.o(x$fpl$dadd) for __aeabi_dadd
    sin_i.o(i.__kernel_sin) refers to sin_i.o(.constdata) for .constdata
    sin_i.o(.constdata) refers (Special) to usenofp.o(x$fpl$usenofp) for __I$use$fp
    sin_i_x.o(i.____kernel_sin$lsc) refers (Special) to usenofp.o(x$fpl$usenofp) for __I$use$fp
    sin_i_x.o(i.____kernel_sin$lsc) refers to dmul.o(x$fpl$dmul) for __aeabi_dmul
    sin_i_x.o(i.____kernel_sin$lsc) refers to poly.o(i.__kernel_poly) for __kernel_poly
    sin_i_x.o(i.____kernel_sin$lsc) refers to scalbn.o(x$fpl$scalbn) for __ARM_scalbn
    sin_i_x.o(i.____kernel_sin$lsc) refers to daddsub_clz.o(x$fpl$dsub) for __aeabi_dsub
    sin_i_x.o(i.____kernel_sin$lsc) refers to daddsub_clz.o(x$fpl$drsb) for __aeabi_drsub
    sin_i_x.o(i.____kernel_sin$lsc) refers to daddsub_clz.o(x$fpl$dadd) for __aeabi_dadd
    sin_i_x.o(i.____kernel_sin$lsc) refers to sin_i_x.o(.constdata) for .constdata
    sin_i_x.o(.constdata) refers (Special) to usenofp.o(x$fpl$usenofp) for __I$use$fp
    libspace.o(.text) refers to libspace.o(.bss) for __libspace_start
    __rtentry2.o(.ARM.Collect$$rtentry$$00000008) refers to boardinit2.o(.text) for _platform_post_stackheap_init
    __rtentry2.o(.ARM.Collect$$rtentry$$0000000A) refers to libinit.o(.ARM.Collect$$libinit$$00000000) for __rt_lib_init
    __rtentry2.o(.ARM.Collect$$rtentry$$0000000B) refers to boardinit3.o(.text) for _platform_post_lib_init
    __rtentry2.o(.ARM.Collect$$rtentry$$0000000D) refers to main.o(.text) for main
    __rtentry2.o(.ARM.Collect$$rtentry$$0000000D) refers to exit.o(.text) for exit
    __rtentry2.o(.ARM.exidx) refers to __rtentry2.o(.ARM.Collect$$rtentry$$00000001) for .ARM.Collect$$rtentry$$00000001
    __rtentry2.o(.ARM.exidx) refers to __rtentry2.o(.ARM.Collect$$rtentry$$00000008) for .ARM.Collect$$rtentry$$00000008
    __rtentry2.o(.ARM.exidx) refers to __rtentry2.o(.ARM.Collect$$rtentry$$0000000A) for .ARM.Collect$$rtentry$$0000000A
    __rtentry2.o(.ARM.exidx) refers to __rtentry2.o(.ARM.Collect$$rtentry$$0000000B) for .ARM.Collect$$rtentry$$0000000B
    __rtentry2.o(.ARM.exidx) refers to __rtentry2.o(.ARM.Collect$$rtentry$$0000000D) for .ARM.Collect$$rtentry$$0000000D
    __rtentry4.o(.ARM.Collect$$rtentry$$00000004) refers to sys_stackheap_outer.o(.text) for __user_setup_stackheap
    __rtentry4.o(.ARM.exidx) refers to __rtentry4.o(.ARM.Collect$$rtentry$$00000004) for .ARM.Collect$$rtentry$$00000004
    isspace.o(.text) refers to rt_ctype_table.o(.text) for __rt_ctype_table
    sprintf.o(.text) refers (Special) to _printf_a.o(.ARM.Collect$$_printf_percent$$00000006) for _printf_a
    sprintf.o(.text) refers (Special) to _printf_c.o(.ARM.Collect$$_printf_percent$$00000013) for _printf_c
    sprintf.o(.text) refers (Special) to _printf_charcount.o(.text) for _printf_charcount
    sprintf.o(.text) refers (Special) to _printf_d.o(.ARM.Collect$$_printf_percent$$00000009) for _printf_d
    sprintf.o(.text) refers (Special) to _printf_e.o(.ARM.Collect$$_printf_percent$$00000004) for _printf_e
    sprintf.o(.text) refers (Special) to _printf_f.o(.ARM.Collect$$_printf_percent$$00000003) for _printf_f
    sprintf.o(.text) refers (Special) to printf1.o(x$fpl$printf1) for _printf_fp_dec
    sprintf.o(.text) refers (Special) to printf2.o(x$fpl$printf2) for _printf_fp_hex
    sprintf.o(.text) refers (Special) to _printf_g.o(.ARM.Collect$$_printf_percent$$00000005) for _printf_g
    sprintf.o(.text) refers (Special) to _printf_i.o(.ARM.Collect$$_printf_percent$$00000008) for _printf_i
    sprintf.o(.text) refers (Special) to _printf_dec.o(.text) for _printf_int_dec
    sprintf.o(.text) refers (Special) to _printf_l.o(.ARM.Collect$$_printf_percent$$00000012) for _printf_l
    sprintf.o(.text) refers (Special) to _printf_lc.o(.ARM.Collect$$_printf_percent$$00000015) for _printf_lc
    sprintf.o(.text) refers (Special) to _printf_ll.o(.ARM.Collect$$_printf_percent$$00000007) for _printf_ll
    sprintf.o(.text) refers (Special) to _printf_lld.o(.ARM.Collect$$_printf_percent$$0000000E) for _printf_lld
    sprintf.o(.text) refers (Special) to _printf_lli.o(.ARM.Collect$$_printf_percent$$0000000D) for _printf_lli
    sprintf.o(.text) refers (Special) to _printf_llo.o(.ARM.Collect$$_printf_percent$$00000010) for _printf_llo
    sprintf.o(.text) refers (Special) to _printf_llu.o(.ARM.Collect$$_printf_percent$$0000000F) for _printf_llu
    sprintf.o(.text) refers (Special) to _printf_llx.o(.ARM.Collect$$_printf_percent$$00000011) for _printf_llx
    sprintf.o(.text) refers (Special) to _printf_longlong_dec.o(.text) for _printf_longlong_dec
    sprintf.o(.text) refers (Special) to _printf_hex_int_ll_ptr.o(.text) for _printf_longlong_hex
    sprintf.o(.text) refers (Special) to _printf_oct_int_ll.o(.text) for _printf_longlong_oct
    sprintf.o(.text) refers (Special) to _printf_ls.o(.ARM.Collect$$_printf_percent$$00000016) for _printf_ls
    sprintf.o(.text) refers (Special) to _printf_n.o(.ARM.Collect$$_printf_percent$$00000001) for _printf_n
    sprintf.o(.text) refers (Special) to _printf_o.o(.ARM.Collect$$_printf_percent$$0000000B) for _printf_o
    sprintf.o(.text) refers (Special) to _printf_p.o(.ARM.Collect$$_printf_percent$$00000002) for _printf_p
    sprintf.o(.text) refers (Special) to _printf_percent.o(.ARM.Collect$$_printf_percent$$00000000) for _printf_percent
    sprintf.o(.text) refers (Special) to _printf_pad.o(.text) for _printf_post_padding
    sprintf.o(.text) refers (Special) to _printf_s.o(.ARM.Collect$$_printf_percent$$00000014) for _printf_s
    sprintf.o(.text) refers (Special) to _printf_str.o(.text) for _printf_str
    sprintf.o(.text) refers (Special) to _printf_truncate.o(.text) for _printf_truncate_signed
    sprintf.o(.text) refers (Special) to _printf_u.o(.ARM.Collect$$_printf_percent$$0000000A) for _printf_u
    sprintf.o(.text) refers (Special) to _printf_wctomb.o(.text) for _printf_wctomb
    sprintf.o(.text) refers (Special) to _printf_x.o(.ARM.Collect$$_printf_percent$$0000000C) for _printf_x
    sprintf.o(.text) refers to _printf_char_common.o(.text) for _printf_char_common
    sprintf.o(.text) refers to _sputc.o(.text) for _sputc
    _printf_fp_infnan.o(.text) refers (Weak) to _printf_pad.o(.text) for _printf_pre_padding
    _printf_fp_infnan.o(.text) refers (Weak) to _printf_pad.o(.text) for _printf_post_padding
    _strtoul.o(.text) refers to _chval.o(.text) for _chval
    _strtoul.o(.text) refers to rt_errno_addr_intlibspace.o(.text) for __aeabi_errno_addr
    bigflt0.o(.text) refers (Special) to usenofp.o(x$fpl$usenofp) for __I$use$fp
    bigflt0.o(.text) refers to btod.o(CL$$btod_emul) for _btod_emul
    bigflt0.o(.text) refers to btod.o(CL$$btod_ediv) for _btod_ediv
    bigflt0.o(.text) refers to bigflt0.o(.constdata) for .constdata
    bigflt0.o(.constdata) refers (Special) to usenofp.o(x$fpl$usenofp) for __I$use$fp
    btod.o(CL$$btod_d2e) refers (Special) to usenofp.o(x$fpl$usenofp) for __I$use$fp
    btod.o(CL$$btod_d2e) refers to btod.o(CL$$btod_d2e_norm_op1) for _d2e_norm_op1
    btod.o(CL$$btod_d2e_norm_op1) refers (Special) to usenofp.o(x$fpl$usenofp) for __I$use$fp
    btod.o(CL$$btod_d2e_norm_op1) refers to btod.o(CL$$btod_d2e_denorm_low) for _d2e_denorm_low
    btod.o(CL$$btod_d2e_denorm_low) refers (Special) to usenofp.o(x$fpl$usenofp) for __I$use$fp
    btod.o(CL$$btod_emul) refers (Special) to usenofp.o(x$fpl$usenofp) for __I$use$fp
    btod.o(CL$$btod_emul) refers to btod.o(CL$$btod_mult_common) for __btod_mult_common
    btod.o(CL$$btod_emul) refers to btod.o(CL$$btod_e2e) for _e2e
    btod.o(CL$$btod_ediv) refers (Special) to usenofp.o(x$fpl$usenofp) for __I$use$fp
    btod.o(CL$$btod_ediv) refers to btod.o(CL$$btod_div_common) for __btod_div_common
    btod.o(CL$$btod_ediv) refers to btod.o(CL$$btod_e2e) for _e2e
    btod.o(CL$$btod_emuld) refers (Special) to usenofp.o(x$fpl$usenofp) for __I$use$fp
    btod.o(CL$$btod_emuld) refers to btod.o(CL$$btod_mult_common) for __btod_mult_common
    btod.o(CL$$btod_emuld) refers to btod.o(CL$$btod_e2d) for _e2d
    btod.o(CL$$btod_edivd) refers (Special) to usenofp.o(x$fpl$usenofp) for __I$use$fp
    btod.o(CL$$btod_edivd) refers to btod.o(CL$$btod_div_common) for __btod_div_common
    btod.o(CL$$btod_edivd) refers to btod.o(CL$$btod_e2d) for _e2d
    btod.o(CL$$btod_e2e) refers (Special) to usenofp.o(x$fpl$usenofp) for __I$use$fp
    btod.o(CL$$btod_e2d) refers (Special) to usenofp.o(x$fpl$usenofp) for __I$use$fp
    btod.o(CL$$btod_e2d) refers to btod.o(CL$$btod_e2e) for _e2e
    btod.o(CL$$btod_mult_common) refers (Special) to usenofp.o(x$fpl$usenofp) for __I$use$fp
    btod.o(CL$$btod_div_common) refers (Special) to usenofp.o(x$fpl$usenofp) for __I$use$fp
    lc_numeric_c.o(locale$$data) refers (Special) to libinit2.o(.ARM.Collect$$libinit$$00000016) for __rt_lib_init_lc_numeric_2
    lc_numeric_c.o(locale$$code) refers (Special) to libinit2.o(.ARM.Collect$$libinit$$00000016) for __rt_lib_init_lc_numeric_2
    lc_numeric_c.o(locale$$code) refers to strcmpv7m.o(.text) for strcmp
    lc_numeric_c.o(locale$$code) refers to lc_numeric_c.o(locale$$data) for __lcnum_c_name
    lc_time_c.o(locale$$data) refers (Special) to libinit2.o(.ARM.Collect$$libinit$$00000018) for __rt_lib_init_lc_time_2
    lc_time_c.o(locale$$code) refers (Special) to libinit2.o(.ARM.Collect$$libinit$$00000018) for __rt_lib_init_lc_time_2
    lc_time_c.o(locale$$code) refers to strcmpv7m.o(.text) for strcmp
    lc_time_c.o(locale$$code) refers to lc_time_c.o(locale$$data) for __lctime_c_name
    libinit2.o(.ARM.Collect$$libinit$$0000000F) refers (Weak) to rt_locale_intlibspace.o(.text) for __rt_locale
    libinit2.o(.ARM.Collect$$libinit$$00000010) refers to libinit2.o(.ARM.Collect$$libinit$$0000000F) for .ARM.Collect$$libinit$$0000000F
    libinit2.o(.ARM.Collect$$libinit$$00000012) refers to libinit2.o(.ARM.Collect$$libinit$$0000000F) for .ARM.Collect$$libinit$$0000000F
    libinit2.o(.ARM.Collect$$libinit$$00000012) refers (Weak) to lc_ctype_c.o(locale$$code) for _get_lc_ctype
    libinit2.o(.ARM.Collect$$libinit$$00000014) refers to libinit2.o(.ARM.Collect$$libinit$$0000000F) for .ARM.Collect$$libinit$$0000000F
    libinit2.o(.ARM.Collect$$libinit$$00000016) refers to libinit2.o(.ARM.Collect$$libinit$$0000000F) for .ARM.Collect$$libinit$$0000000F
    libinit2.o(.ARM.Collect$$libinit$$00000016) refers (Weak) to lc_numeric_c.o(locale$$code) for _get_lc_numeric
    libinit2.o(.ARM.Collect$$libinit$$00000018) refers to libinit2.o(.ARM.Collect$$libinit$$0000000F) for .ARM.Collect$$libinit$$0000000F
    libinit2.o(.ARM.Collect$$libinit$$00000018) refers (Weak) to lc_time_c.o(locale$$code) for _get_lc_time
    libinit2.o(.ARM.Collect$$libinit$$00000026) refers to argv_veneer.o(.emb_text) for __ARM_argv_veneer
    libinit2.o(.ARM.Collect$$libinit$$00000027) refers to argv_veneer.o(.emb_text) for __ARM_argv_veneer
    dcmpi.o(x$fpl$dcmpinf) refers (Special) to usenofp.o(x$fpl$usenofp) for __I$use$fp
    istatus.o(x$fpl$ieeestatus) refers (Special) to usenofp.o(x$fpl$usenofp) for __I$use$fp
    retnan.o(x$fpl$retnan) refers (Special) to usenofp.o(x$fpl$usenofp) for __I$use$fp
    retnan.o(x$fpl$retnan) refers to trapv.o(x$fpl$trapveneer) for __fpl_cmpreturn
    scanf1.o(x$fpl$scanf1) refers to scanf_fp.o(.text) for _scanf_really_real
    sys_stackheap_outer.o(.text) refers to libspace.o(.text) for __user_perproc_libspace
    sys_stackheap_outer.o(.text) refers to startup_stm32f10x_hd.o(.text) for __user_initial_stackheap
    _printf_wctomb.o(.text) refers (Special) to _printf_wchar.o(.text) for _printf_lcs_common
    _printf_wctomb.o(.text) refers to _wcrtomb.o(.text) for _wcrtomb
    _printf_wctomb.o(.text) refers (Weak) to _printf_pad.o(.text) for _printf_pre_padding
    _printf_wctomb.o(.text) refers (Weak) to _printf_pad.o(.text) for _printf_post_padding
    _printf_wctomb.o(.text) refers to _printf_wctomb.o(.constdata) for .constdata
    _printf_wctomb.o(.constdata) refers (Special) to _printf_wchar.o(.text) for _printf_lcs_common
    _printf_longlong_dec.o(.text) refers to lludiv10.o(.text) for _ll_udiv10
    _printf_longlong_dec.o(.text) refers to _printf_intcommon.o(.text) for _printf_int_common
    _printf_oct_ll.o(.text) refers to _printf_intcommon.o(.text) for _printf_int_common
    _printf_oct_int.o(.text) refers (Weak) to _printf_truncate.o(.text) for _printf_truncate_unsigned
    _printf_oct_int.o(.text) refers to _printf_intcommon.o(.text) for _printf_int_common
    _printf_oct_int_ll.o(.text) refers to _printf_intcommon.o(.text) for _printf_int_common
    _printf_oct_int_ll.o(.text) refers (Weak) to _printf_truncate.o(.text) for _printf_truncate_unsigned
    _printf_c.o(.ARM.Collect$$_printf_percent$$00000013) refers (Weak) to _printf_char.o(.text) for _printf_char
    _printf_n.o(.ARM.Collect$$_printf_percent$$00000001) refers (Weak) to _printf_charcount.o(.text) for _printf_charcount
    _printf_p.o(.ARM.Collect$$_printf_percent$$00000002) refers (Weak) to _printf_hex_int_ll_ptr.o(.text) for _printf_hex_ptr
    _printf_o.o(.ARM.Collect$$_printf_percent$$0000000B) refers (Weak) to _printf_oct_int_ll.o(.text) for _printf_int_oct
    _printf_i.o(.ARM.Collect$$_printf_percent$$00000008) refers (Weak) to _printf_dec.o(.text) for _printf_int_dec
    _printf_e.o(.ARM.Collect$$_printf_percent$$00000004) refers (Weak) to printf1.o(x$fpl$printf1) for _printf_fp_dec
    _printf_g.o(.ARM.Collect$$_printf_percent$$00000005) refers (Weak) to printf1.o(x$fpl$printf1) for _printf_fp_dec
    _printf_a.o(.ARM.Collect$$_printf_percent$$00000006) refers (Weak) to printf2.o(x$fpl$printf2) for _printf_fp_hex
    _printf_lli.o(.ARM.Collect$$_printf_percent$$0000000D) refers (Special) to _printf_ll.o(.ARM.Collect$$_printf_percent$$00000007) for _printf_ll
    _printf_lli.o(.ARM.Collect$$_printf_percent$$0000000D) refers (Weak) to _printf_longlong_dec.o(.text) for _printf_longlong_dec
    _printf_lld.o(.ARM.Collect$$_printf_percent$$0000000E) refers (Special) to _printf_ll.o(.ARM.Collect$$_printf_percent$$00000007) for _printf_ll
    _printf_lld.o(.ARM.Collect$$_printf_percent$$0000000E) refers (Weak) to _printf_longlong_dec.o(.text) for _printf_longlong_dec
    _printf_llu.o(.ARM.Collect$$_printf_percent$$0000000F) refers (Special) to _printf_ll.o(.ARM.Collect$$_printf_percent$$00000007) for _printf_ll
    _printf_llu.o(.ARM.Collect$$_printf_percent$$0000000F) refers (Weak) to _printf_longlong_dec.o(.text) for _printf_longlong_dec
    _printf_lc.o(.ARM.Collect$$_printf_percent$$00000015) refers (Special) to _printf_l.o(.ARM.Collect$$_printf_percent$$00000012) for _printf_l
    _printf_lc.o(.ARM.Collect$$_printf_percent$$00000015) refers (Weak) to _printf_wchar.o(.text) for _printf_wchar
    _printf_ls.o(.ARM.Collect$$_printf_percent$$00000016) refers (Special) to _printf_l.o(.ARM.Collect$$_printf_percent$$00000012) for _printf_l
    _printf_ls.o(.ARM.Collect$$_printf_percent$$00000016) refers (Weak) to _printf_wchar.o(.text) for _printf_wstring
    _printf_llo.o(.ARM.Collect$$_printf_percent$$00000010) refers (Special) to _printf_ll.o(.ARM.Collect$$_printf_percent$$00000007) for _printf_ll
    _printf_llo.o(.ARM.Collect$$_printf_percent$$00000010) refers (Weak) to _printf_oct_int_ll.o(.text) for _printf_ll_oct
    _printf_llx.o(.ARM.Collect$$_printf_percent$$00000011) refers (Special) to _printf_ll.o(.ARM.Collect$$_printf_percent$$00000007) for _printf_ll
    _printf_llx.o(.ARM.Collect$$_printf_percent$$00000011) refers (Weak) to _printf_hex_int_ll_ptr.o(.text) for _printf_ll_hex
    scanf_fp.o(.text) refers (Special) to usenofp.o(x$fpl$usenofp) for __I$use$fp
    scanf_fp.o(.text) refers (Special) to lc_numeric_c.o(locale$$code) for _get_lc_numeric
    scanf_fp.o(.text) refers to rt_errno_addr_intlibspace.o(.text) for __aeabi_errno_addr
    scanf_fp.o(.text) refers to bigflt0.o(.text) for _btod_etento
    scanf_fp.o(.text) refers to btod.o(CL$$btod_emuld) for _btod_emuld
    scanf_fp.o(.text) refers to btod.o(CL$$btod_edivd) for _btod_edivd
    scanf_fp.o(.text) refers to rt_locale_intlibspace.o(.text) for __rt_locale
    scanf_fp.o(.text) refers to scanf2.o(x$fpl$scanf2) for _scanf_infnan
    scanf_fp.o(.text) refers to __printf_wp.o(i._is_digit) for _is_digit
    scanf_fp.o(.text) refers to narrow.o(i.__mathlib_narrow) for __mathlib_narrow
    scanf_fp.o(.text) refers to fpconst.o(c$$dinf) for __huge_val
    exit.o(.text) refers to rtexit.o(.ARM.Collect$$rtexit$$00000000) for __rt_exit
    argv_veneer.o(.emb_text) refers to no_argv.o(.text) for __ARM_get_argv
    libinit.o(.ARM.Collect$$libinit$$00000000) refers (Special) to libinit2.o(.ARM.Collect$$libinit$$0000002E) for __rt_lib_init_alloca_1
    libinit.o(.ARM.Collect$$libinit$$00000000) refers (Special) to libinit2.o(.ARM.Collect$$libinit$$0000002C) for __rt_lib_init_argv_1
    libinit.o(.ARM.Collect$$libinit$$00000000) refers (Special) to libinit2.o(.ARM.Collect$$libinit$$0000001B) for __rt_lib_init_atexit_1
    libinit.o(.ARM.Collect$$libinit$$00000000) refers (Special) to libinit2.o(.ARM.Collect$$libinit$$00000021) for __rt_lib_init_clock_1
    libinit.o(.ARM.Collect$$libinit$$00000000) refers (Special) to libinit2.o(.ARM.Collect$$libinit$$00000032) for __rt_lib_init_cpp_1
    libinit.o(.ARM.Collect$$libinit$$00000000) refers (Special) to libinit2.o(.ARM.Collect$$libinit$$00000030) for __rt_lib_init_exceptions_1
    libinit.o(.ARM.Collect$$libinit$$00000000) refers (Special) to libinit2.o(.ARM.Collect$$libinit$$00000002) for __rt_lib_init_fp_1
    libinit.o(.ARM.Collect$$libinit$$00000000) refers (Special) to libinit2.o(.ARM.Collect$$libinit$$0000001F) for __rt_lib_init_fp_trap_1
    libinit.o(.ARM.Collect$$libinit$$00000000) refers (Special) to libinit2.o(.ARM.Collect$$libinit$$00000023) for __rt_lib_init_getenv_1
    libinit.o(.ARM.Collect$$libinit$$00000000) refers (Special) to libinit2.o(.ARM.Collect$$libinit$$0000000A) for __rt_lib_init_heap_1
    libinit.o(.ARM.Collect$$libinit$$00000000) refers (Special) to libinit2.o(.ARM.Collect$$libinit$$00000011) for __rt_lib_init_lc_collate_1
    libinit.o(.ARM.Collect$$libinit$$00000000) refers (Special) to libinit2.o(.ARM.Collect$$libinit$$00000013) for __rt_lib_init_lc_ctype_1
    libinit.o(.ARM.Collect$$libinit$$00000000) refers (Special) to libinit2.o(.ARM.Collect$$libinit$$00000015) for __rt_lib_init_lc_monetary_1
    libinit.o(.ARM.Collect$$libinit$$00000000) refers (Special) to libinit2.o(.ARM.Collect$$libinit$$00000017) for __rt_lib_init_lc_numeric_1
    libinit.o(.ARM.Collect$$libinit$$00000000) refers (Special) to libinit2.o(.ARM.Collect$$libinit$$00000019) for __rt_lib_init_lc_time_1
    libinit.o(.ARM.Collect$$libinit$$00000000) refers (Special) to libinit2.o(.ARM.Collect$$libinit$$00000004) for __rt_lib_init_preinit_1
    libinit.o(.ARM.Collect$$libinit$$00000000) refers (Special) to libinit2.o(.ARM.Collect$$libinit$$0000000E) for __rt_lib_init_rand_1
    libinit.o(.ARM.Collect$$libinit$$00000000) refers (Special) to libinit2.o(.ARM.Collect$$libinit$$00000033) for __rt_lib_init_return
    libinit.o(.ARM.Collect$$libinit$$00000000) refers (Special) to libinit2.o(.ARM.Collect$$libinit$$0000001D) for __rt_lib_init_signal_1
    libinit.o(.ARM.Collect$$libinit$$00000000) refers (Special) to libinit2.o(.ARM.Collect$$libinit$$00000025) for __rt_lib_init_stdio_1
    libinit.o(.ARM.Collect$$libinit$$00000000) refers (Special) to libinit2.o(.ARM.Collect$$libinit$$0000000C) for __rt_lib_init_user_alloc_1
    printf2.o(x$fpl$printf2) refers to _printf_fp_hex.o(.text) for _printf_fp_hex_real
    printf2b.o(x$fpl$printf2) refers to _printf_fp_hex.o(.text) for _printf_fp_hex_real
    trapv.o(x$fpl$trapveneer) refers (Special) to usenofp.o(x$fpl$usenofp) for __I$use$fp
    rtexit.o(.ARM.Collect$$rtexit$$00000000) refers (Special) to rtexit2.o(.ARM.Collect$$rtexit$$00000004) for __rt_exit_exit
    rtexit.o(.ARM.Collect$$rtexit$$00000000) refers (Special) to rtexit2.o(.ARM.Collect$$rtexit$$00000003) for __rt_exit_ls
    rtexit.o(.ARM.Collect$$rtexit$$00000000) refers (Special) to rtexit2.o(.ARM.Collect$$rtexit$$00000002) for __rt_exit_prels_1
    rtexit.o(.ARM.exidx) refers (Special) to rtexit2.o(.ARM.Collect$$rtexit$$00000004) for __rt_exit_exit
    rtexit.o(.ARM.exidx) refers (Special) to rtexit2.o(.ARM.Collect$$rtexit$$00000003) for __rt_exit_ls
    rtexit.o(.ARM.exidx) refers (Special) to rtexit2.o(.ARM.Collect$$rtexit$$00000002) for __rt_exit_prels_1
    rtexit.o(.ARM.exidx) refers to rtexit.o(.ARM.Collect$$rtexit$$00000000) for .ARM.Collect$$rtexit$$00000000
    _printf_fp_hex.o(.text) refers (Special) to usenofp.o(x$fpl$usenofp) for __I$use$fp
    _printf_fp_hex.o(.text) refers to fpclassify.o(i.__ARM_fpclassify) for __ARM_fpclassify
    _printf_fp_hex.o(.text) refers to _printf_fp_infnan.o(.text) for _printf_fp_infnan
    _printf_fp_hex.o(.text) refers (Weak) to _printf_pad.o(.text) for _printf_pre_padding
    _printf_fp_hex.o(.text) refers (Weak) to _printf_pad.o(.text) for _printf_pre_padding
    _printf_fp_hex.o(.text) refers (Weak) to _printf_pad.o(.text) for _printf_post_padding
    _printf_fp_hex.o(.text) refers to _printf_fp_hex.o(.constdata) for .constdata
    _printf_fp_hex.o(.constdata) refers (Special) to usenofp.o(x$fpl$usenofp) for __I$use$fp
    _printf_wchar.o(.text) refers (Weak) to _printf_wctomb.o(.text) for _printf_wctomb
    _wcrtomb.o(.text) refers to rt_ctype_table.o(.text) for __rt_ctype_table
    _get_argv_nomalloc.o(.text) refers (Special) to hrguard.o(.text) for __heap_region$guard
    _get_argv_nomalloc.o(.text) refers to defsig_rtmem_outer.o(.text) for __rt_SIGRTMEM
    _get_argv_nomalloc.o(.text) refers to sys_command.o(.text) for _sys_command_string
    fpconst.o(c$$dinf) refers (Special) to usenofp.o(x$fpl$usenofp) for __I$use$fp
    fpconst.o(c$$dnan) refers (Special) to usenofp.o(x$fpl$usenofp) for __I$use$fp
    fpconst.o(c$$finf) refers (Special) to usenofp.o(x$fpl$usenofp) for __I$use$fp
    scanf2.o(x$fpl$scanf2) refers to scanf_hexfp.o(.text) for _scanf_really_hex_real
    scanf2.o(x$fpl$scanf2) refers to scanf_infnan.o(.text) for _scanf_really_infnan
    scanf2b.o(x$fpl$scanf2) refers to scanf_hexfp.o(.text) for _scanf_really_hex_real
    scanf2b.o(x$fpl$scanf2) refers to scanf_infnan.o(.text) for _scanf_really_infnan
    narrow.o(i.__mathlib_narrow) refers (Special) to usenofp.o(x$fpl$usenofp) for __I$use$fp
    narrow.o(i.__mathlib_narrow) refers to narrow.o(i.__mathlib_tofloat) for __mathlib_tofloat
    narrow.o(i.__mathlib_tofloat) refers (Special) to usenofp.o(x$fpl$usenofp) for __I$use$fp
    narrow.o(i.__mathlib_tofloat) refers to frexp.o(i.frexp) for frexp
    narrow.o(i.__mathlib_tofloat) refers to deqf.o(x$fpl$deqf) for __aeabi_cdcmpeq
    narrow.o(i.__mathlib_tofloat) refers to d2f.o(x$fpl$d2f) for __aeabi_d2f
    narrow.o(i.__mathlib_tofloat) refers to _rserrno.o(.text) for __set_errno
    narrow.o(i.__mathlib_tofloat) refers to drleqf.o(x$fpl$drleqf) for __aeabi_cdrcmple
    narrow.o(i.__softfp___mathlib_tofloat) refers (Special) to usenofp.o(x$fpl$usenofp) for __I$use$fp
    narrow.o(i.__softfp___mathlib_tofloat) refers to narrow.o(i.__mathlib_tofloat) for __mathlib_tofloat
    sys_command.o(.text) refers (Special) to use_no_semi.o(.text) for __I$use$semihosting
    sys_command.o(.text) refers (Special) to indicate_semi.o(.text) for __semihosting_library_function
    rtexit2.o(.ARM.Collect$$rtexit$$00000003) refers to libshutdown.o(.ARM.Collect$$libshutdown$$00000000) for __rt_lib_shutdown
    rtexit2.o(.ARM.Collect$$rtexit$$00000004) refers to sys_exit.o(.text) for _sys_exit
    rtexit2.o(.ARM.exidx) refers to rtexit2.o(.ARM.Collect$$rtexit$$00000001) for .ARM.Collect$$rtexit$$00000001
    rtexit2.o(.ARM.exidx) refers to rtexit2.o(.ARM.Collect$$rtexit$$00000003) for .ARM.Collect$$rtexit$$00000003
    rtexit2.o(.ARM.exidx) refers to rtexit2.o(.ARM.Collect$$rtexit$$00000004) for .ARM.Collect$$rtexit$$00000004
    scanf_hexfp.o(.text) refers to _chval.o(.text) for _chval
    scanf_hexfp.o(.text) refers to llshl.o(.text) for __aeabi_llsl
    scanf_hexfp.o(.text) refers to ldexp.o(i.__support_ldexp) for __support_ldexp
    scanf_hexfp.o(.text) refers to narrow.o(i.__mathlib_narrow) for __mathlib_narrow
    defsig_rtmem_outer.o(.text) refers to defsig_rtmem_inner.o(.text) for __rt_SIGRTMEM_inner
    defsig_rtmem_outer.o(.text) refers to defsig_exit.o(.text) for __sig_exit
    defsig_rtmem_formal.o(.text) refers to rt_raise.o(.text) for __rt_raise
    deqf.o(x$fpl$deqf) refers (Special) to usenofp.o(x$fpl$usenofp) for __I$use$fp
    deqf.o(x$fpl$deqf) refers to dnaninf.o(x$fpl$dnaninf) for __fpl_dnaninf
    deqf.o(x$fpl$deqf) refers to dcmpi.o(x$fpl$dcmpinf) for __fpl_dcmp_Inf
    frexp.o(i.__softfp_frexp) refers (Special) to usenofp.o(x$fpl$usenofp) for __I$use$fp
    frexp.o(i.__softfp_frexp) refers to scalbn.o(x$fpl$scalbn) for __ARM_scalbn
    frexp.o(i.frexp) refers (Special) to usenofp.o(x$fpl$usenofp) for __I$use$fp
    frexp.o(i.frexp) refers to scalbn.o(x$fpl$scalbn) for __ARM_scalbn
    sys_exit.o(.text) refers (Special) to use_no_semi.o(.text) for __I$use$semihosting
    sys_exit.o(.text) refers (Special) to indicate_semi.o(.text) for __semihosting_library_function
    rt_raise.o(.text) refers to __raise.o(.text) for __raise
    rt_raise.o(.text) refers to sys_exit.o(.text) for _sys_exit
    defsig_exit.o(.text) refers to sys_exit.o(.text) for _sys_exit
    defsig_rtmem_inner.o(.text) refers to defsig_general.o(.text) for __default_signal_display
    libshutdown.o(.ARM.Collect$$libshutdown$$00000000) refers (Special) to libshutdown2.o(.ARM.Collect$$libshutdown$$00000006) for __rt_lib_shutdown_fp_trap_1
    libshutdown.o(.ARM.Collect$$libshutdown$$00000000) refers (Special) to libshutdown2.o(.ARM.Collect$$libshutdown$$0000000E) for __rt_lib_shutdown_heap_1
    libshutdown.o(.ARM.Collect$$libshutdown$$00000000) refers (Special) to libshutdown2.o(.ARM.Collect$$libshutdown$$0000000F) for __rt_lib_shutdown_return
    libshutdown.o(.ARM.Collect$$libshutdown$$00000000) refers (Special) to libshutdown2.o(.ARM.Collect$$libshutdown$$00000009) for __rt_lib_shutdown_signal_1
    libshutdown.o(.ARM.Collect$$libshutdown$$00000000) refers (Special) to libshutdown2.o(.ARM.Collect$$libshutdown$$00000003) for __rt_lib_shutdown_stdio_1
    libshutdown.o(.ARM.Collect$$libshutdown$$00000000) refers (Special) to libshutdown2.o(.ARM.Collect$$libshutdown$$0000000B) for __rt_lib_shutdown_user_alloc_1
    ldexp.o(i.__softfp_ldexp) refers (Special) to usenofp.o(x$fpl$usenofp) for __I$use$fp
    ldexp.o(i.__softfp_ldexp) refers to ldexp.o(i.ldexp) for ldexp
    ldexp.o(i.__support_ldexp) refers (Special) to usenofp.o(x$fpl$usenofp) for __I$use$fp
    ldexp.o(i.__support_ldexp) refers to ldexp.o(i.ldexp) for ldexp
    ldexp.o(i.ldexp) refers (Special) to usenofp.o(x$fpl$usenofp) for __I$use$fp
    ldexp.o(i.ldexp) refers to deqf.o(x$fpl$deqf) for __aeabi_cdcmpeq
    ldexp.o(i.ldexp) refers to scalbn.o(x$fpl$scalbn) for __ARM_scalbn
    ldexp.o(i.ldexp) refers to _rserrno.o(.text) for __set_errno
    ldexp.o(i.ldexp) refers to dunder.o(i.__mathlib_dbl_underflow) for __mathlib_dbl_underflow
    ldexp.o(i.ldexp) refers to dunder.o(i.__mathlib_dbl_overflow) for __mathlib_dbl_overflow
    ldexp_x.o(i.____softfp_ldexp$lsc) refers (Special) to usenofp.o(x$fpl$usenofp) for __I$use$fp
    ldexp_x.o(i.____softfp_ldexp$lsc) refers to ldexp_x.o(i.__ldexp$lsc) for __ldexp$lsc
    ldexp_x.o(i.____support_ldexp$lsc) refers (Special) to usenofp.o(x$fpl$usenofp) for __I$use$fp
    ldexp_x.o(i.____support_ldexp$lsc) refers to ldexp_x.o(i.__ldexp$lsc) for __ldexp$lsc
    ldexp_x.o(i.__ldexp$lsc) refers (Special) to usenofp.o(x$fpl$usenofp) for __I$use$fp
    ldexp_x.o(i.__ldexp$lsc) refers to deqf.o(x$fpl$deqf) for __aeabi_cdcmpeq
    ldexp_x.o(i.__ldexp$lsc) refers to scalbn.o(x$fpl$scalbn) for __ARM_scalbn
    ldexp_x.o(i.__ldexp$lsc) refers to _rserrno.o(.text) for __set_errno
    ldexp_x.o(i.__ldexp$lsc) refers to qnan.o(.constdata) for __mathlib_zero
    __raise.o(.text) refers to defsig.o(CL$$defsig) for __default_signal_handler
    defsig_general.o(.text) refers to sys_wrch.o(.text) for _ttywrch
    sys_wrch.o(.text) refers (Special) to use_no_semi.o(.text) for __I$use$semihosting
    sys_wrch.o(.text) refers (Special) to indicate_semi.o(.text) for __semihosting_library_function
    defsig.o(CL$$defsig) refers to defsig_rtmem_inner.o(.text) for __rt_SIGRTMEM_inner
    defsig_abrt_inner.o(.text) refers to defsig_general.o(.text) for __default_signal_display
    defsig_fpe_inner.o(.text) refers to defsig_general.o(.text) for __default_signal_display
    defsig_rtred_inner.o(.text) refers to defsig_general.o(.text) for __default_signal_display
    defsig_stak_inner.o(.text) refers to defsig_general.o(.text) for __default_signal_display
    defsig_pvfn_inner.o(.text) refers to defsig_general.o(.text) for __default_signal_display
    defsig_cppl_inner.o(.text) refers to defsig_general.o(.text) for __default_signal_display
    defsig_segv_inner.o(.text) refers to defsig_general.o(.text) for __default_signal_display
    defsig_other.o(.text) refers to defsig_general.o(.text) for __default_signal_display


==============================================================================

Removing Unused input sections from the image.

    Removing core_cm3.o(.emb_text), (32 bytes).
    Removing system_stm32f10x.o(.constdata), (4 bytes).
    Removing system_stm32f10x.o(.constdata), (4 bytes).
    Removing system_stm32f10x.o(.constdata), (4 bytes).
    Removing system_stm32f10x.o(.constdata), (4 bytes).
    Removing system_stm32f10x.o(.constdata), (4 bytes).
    Removing stm32f10x_adc.o(.text), (876 bytes).
    Removing stm32f10x_iwdg.o(.text), (60 bytes).
    Removing modem_parser.o(.constdata), (3 bytes).
    Removing qa_usub.o(.text), (160 bytes).
    Removing qa_usub.o(.constdata), (8 bytes).
    Removing qa_usuba.o(.text), (196 bytes).
    Removing qa_usuba.o(.constdata), (9 bytes).
    Removing qeq_lifo.o(.text), (164 bytes).
    Removing qeq_lifo.o(.constdata), (9 bytes).
    Removing qf_act.o(.data), (1 bytes).
    Removing qma_ctor.o(.text), (20 bytes).
    Removing qma_ctor.o(.constdata), (20 bytes).
    Removing qte_ctr.o(.text), (96 bytes).
    Removing qte_rarm.o(.text), (176 bytes).
    Removing qte_rarm.o(.constdata), (9 bytes).
    Removing qk_ext.o(.text), (208 bytes).
    Removing qk_mutex.o(.text), (152 bytes).
    Removing qs_blk.o(.text), (64 bytes).
    Removing qs_f32.o(.text), (168 bytes).
    Removing qs_f64.o(.text), (240 bytes).
    Removing qs_mem.o(.text), (192 bytes).
    Removing qhsm_in.o(.text), (64 bytes).
    Removing qhsm_in.o(.constdata), (8 bytes).
    Removing qmsm_dis.o(.text), (784 bytes).
    Removing qmsm_dis.o(.constdata), (9 bytes).
    Removing qmsm_ini.o(.text), (296 bytes).
    Removing qmsm_ini.o(.constdata), (17 bytes).
    Removing qmsm_ini.o(.constdata), (4 bytes).
    Removing io.o(.data), (2 bytes).
    Removing my_time.o(.text), (292 bytes).
    Removing my_time.o(.bss), (44 bytes).
    Removing my_time.o(.constdata), (24 bytes).
    Removing nmea_parser.o(.data), (4 bytes).
    Removing nmea_parser.o(.data), (1 bytes).
    Removing nav_filter.o(.data), (1 bytes).
    Removing nav_filter.o(.data), (5 bytes).

42 unused section(s) (total 4438 bytes) removed from the image.

==============================================================================

Image Symbol Table

    Local Symbols

    Symbol Name                              Value     Ov Type        Size  Object(Section)

    ../clib/angel/boardlib.s                 0x00000000   Number         0  boardinit1.o ABSOLUTE
    ../clib/angel/boardlib.s                 0x00000000   Number         0  boardshut.o ABSOLUTE
    ../clib/angel/boardlib.s                 0x00000000   Number         0  boardinit2.o ABSOLUTE
    ../clib/angel/boardlib.s                 0x00000000   Number         0  boardinit3.o ABSOLUTE
    ../clib/angel/dczerorl2.s                0x00000000   Number         0  __dczerorl2.o ABSOLUTE
    ../clib/angel/handlers.s                 0x00000000   Number         0  __scatter_zi.o ABSOLUTE
    ../clib/angel/kernel.s                   0x00000000   Number         0  rtexit.o ABSOLUTE
    ../clib/angel/kernel.s                   0x00000000   Number         0  __rtentry4.o ABSOLUTE
    ../clib/angel/kernel.s                   0x00000000   Number         0  rtexit2.o ABSOLUTE
    ../clib/angel/kernel.s                   0x00000000   Number         0  __rtentry2.o ABSOLUTE
    ../clib/angel/kernel.s                   0x00000000   Number         0  __rtentry.o ABSOLUTE
    ../clib/angel/rt.s                       0x00000000   Number         0  rt_errno_addr_intlibspace.o ABSOLUTE
    ../clib/angel/rt.s                       0x00000000   Number         0  rt_errno_addr.o ABSOLUTE
    ../clib/angel/rt.s                       0x00000000   Number         0  rt_locale_intlibspace.o ABSOLUTE
    ../clib/angel/rt.s                       0x00000000   Number         0  rt_ctype_table.o ABSOLUTE
    ../clib/angel/rt.s                       0x00000000   Number         0  rt_raise.o ABSOLUTE
    ../clib/angel/rt.s                       0x00000000   Number         0  rt_locale.o ABSOLUTE
    ../clib/angel/scatter.s                  0x00000000   Number         0  __scatter.o ABSOLUTE
    ../clib/angel/startup.s                  0x00000000   Number         0  __main.o ABSOLUTE
    ../clib/angel/sys.s                      0x00000000   Number         0  sys_stackheap_outer.o ABSOLUTE
    ../clib/angel/sys.s                      0x00000000   Number         0  use_no_semi.o ABSOLUTE
    ../clib/angel/sys.s                      0x00000000   Number         0  indicate_semi.o ABSOLUTE
    ../clib/angel/sys.s                      0x00000000   Number         0  libspace.o ABSOLUTE
    ../clib/angel/sysapp.c                   0x00000000   Number         0  sys_exit.o ABSOLUTE
    ../clib/angel/sysapp.c                   0x00000000   Number         0  sys_command.o ABSOLUTE
    ../clib/angel/sysapp.c                   0x00000000   Number         0  sys_wrch.o ABSOLUTE
    ../clib/armsys.c                         0x00000000   Number         0  no_argv.o ABSOLUTE
    ../clib/armsys.c                         0x00000000   Number         0  argv_veneer.o ABSOLUTE
    ../clib/armsys.c                         0x00000000   Number         0  _get_argv_nomalloc.o ABSOLUTE
    ../clib/armsys.c                         0x00000000   Number         0  argv_veneer.o ABSOLUTE
    ../clib/bigflt.c                         0x00000000   Number         0  bigflt0.o ABSOLUTE
    ../clib/btod.s                           0x00000000   Number         0  btod.o ABSOLUTE
    ../clib/ctype.c                          0x00000000   Number         0  toupper.o ABSOLUTE
    ../clib/ctype.c                          0x00000000   Number         0  isspace.o ABSOLUTE
    ../clib/fenv.c                           0x00000000   Number         0  _rserrno.o ABSOLUTE
    ../clib/heapalloc.c                      0x00000000   Number         0  hrguard.o ABSOLUTE
    ../clib/heapaux.c                        0x00000000   Number         0  heapauxi.o ABSOLUTE
    ../clib/libinit.s                        0x00000000   Number         0  libinit2.o ABSOLUTE
    ../clib/libinit.s                        0x00000000   Number         0  libshutdown.o ABSOLUTE
    ../clib/libinit.s                        0x00000000   Number         0  libshutdown2.o ABSOLUTE
    ../clib/libinit.s                        0x00000000   Number         0  libinit.o ABSOLUTE
    ../clib/locale.c                         0x00000000   Number         0  _wcrtomb.o ABSOLUTE
    ../clib/locale.s                         0x00000000   Number         0  lc_time_c.o ABSOLUTE
    ../clib/locale.s                         0x00000000   Number         0  lc_numeric_c.o ABSOLUTE
    ../clib/locale.s                         0x00000000   Number         0  lc_ctype_c.o ABSOLUTE
    ../clib/longlong.s                       0x00000000   Number         0  llshl.o ABSOLUTE
    ../clib/longlong.s                       0x00000000   Number         0  lludiv10.o ABSOLUTE
    ../clib/memcpset.s                       0x00000000   Number         0  rt_memclr.o ABSOLUTE
    ../clib/memcpset.s                       0x00000000   Number         0  strncpy.o ABSOLUTE
    ../clib/memcpset.s                       0x00000000   Number         0  strcmpv7m.o ABSOLUTE
    ../clib/memcpset.s                       0x00000000   Number         0  rt_memclr_w.o ABSOLUTE
    ../clib/memcpset.s                       0x00000000   Number         0  rt_memcpy_v6.o ABSOLUTE
    ../clib/memcpset.s                       0x00000000   Number         0  rt_memcpy_w.o ABSOLUTE
    ../clib/misc.s                           0x00000000   Number         0  printf_stubs.o ABSOLUTE
    ../clib/printf.c                         0x00000000   Number         0  _printf_oct_int_ll.o ABSOLUTE
    ../clib/printf.c                         0x00000000   Number         0  _printf_oct_ll.o ABSOLUTE
    ../clib/printf.c                         0x00000000   Number         0  _printf_longlong_dec.o ABSOLUTE
    ../clib/printf.c                         0x00000000   Number         0  _printf_wctomb.o ABSOLUTE
    ../clib/printf.c                         0x00000000   Number         0  _printf_charcount.o ABSOLUTE
    ../clib/printf.c                         0x00000000   Number         0  _printf_oct_int.o ABSOLUTE
    ../clib/printf.c                         0x00000000   Number         0  _printf_char.o ABSOLUTE
    ../clib/printf.c                         0x00000000   Number         0  _sputc.o ABSOLUTE
    ../clib/printf.c                         0x00000000   Number         0  _printf_char_common.o ABSOLUTE
    ../clib/printf.c                         0x00000000   Number         0  _printf_fp_dec.o ABSOLUTE
    ../clib/printf.c                         0x00000000   Number         0  _printf_truncate.o ABSOLUTE
    ../clib/printf.c                         0x00000000   Number         0  _printf_intcommon.o ABSOLUTE
    ../clib/printf.c                         0x00000000   Number         0  __printf_flags_ss_wp.o ABSOLUTE
    ../clib/printf.c                         0x00000000   Number         0  __printf_ss_wp.o ABSOLUTE
    ../clib/printf.c                         0x00000000   Number         0  __printf_flags_wp.o ABSOLUTE
    ../clib/printf.c                         0x00000000   Number         0  __printf_wp.o ABSOLUTE
    ../clib/printf.c                         0x00000000   Number         0  __printf_flags_ss.o ABSOLUTE
    ../clib/printf.c                         0x00000000   Number         0  __printf_ss.o ABSOLUTE
    ../clib/printf.c                         0x00000000   Number         0  __printf_flags.o ABSOLUTE
    ../clib/printf.c                         0x00000000   Number         0  _printf_hex_int_ll_ptr.o ABSOLUTE
    ../clib/printf.c                         0x00000000   Number         0  _printf_hex_ll_ptr.o ABSOLUTE
    ../clib/printf.c                         0x00000000   Number         0  _printf_hex_int_ptr.o ABSOLUTE
    ../clib/printf.c                         0x00000000   Number         0  _printf_hex_ptr.o ABSOLUTE
    ../clib/printf.c                         0x00000000   Number         0  _printf_hex_int_ll.o ABSOLUTE
    ../clib/printf.c                         0x00000000   Number         0  _printf_hex_int.o ABSOLUTE
    ../clib/printf.c                         0x00000000   Number         0  _printf_hex_ll.o ABSOLUTE
    ../clib/printf.c                         0x00000000   Number         0  _printf_dec.o ABSOLUTE
    ../clib/printf.c                         0x00000000   Number         0  _printf_str.o ABSOLUTE
    ../clib/printf.c                         0x00000000   Number         0  _printf_pad.o ABSOLUTE
    ../clib/printf.c                         0x00000000   Number         0  __printf.o ABSOLUTE
    ../clib/printf.c                         0x00000000   Number         0  noretval__2sprintf.o ABSOLUTE
    ../clib/printf.c                         0x00000000   Number         0  __2sprintf.o ABSOLUTE
    ../clib/printf.c                         0x00000000   Number         0  _printf_wchar.o ABSOLUTE
    ../clib/printf.c                         0x00000000   Number         0  __printf_nopercent.o ABSOLUTE
    ../clib/printf.c                         0x00000000   Number         0  _printf_fp_infnan.o ABSOLUTE
    ../clib/printf.c                         0x00000000   Number         0  sprintf.o ABSOLUTE
    ../clib/printf.c                         0x00000000   Number         0  _printf_fp_hex.o ABSOLUTE
    ../clib/printf_percent.s                 0x00000000   Number         0  _printf_llx.o ABSOLUTE
    ../clib/printf_percent.s                 0x00000000   Number         0  _printf_s.o ABSOLUTE
    ../clib/printf_percent.s                 0x00000000   Number         0  _printf_f.o ABSOLUTE
    ../clib/printf_percent.s                 0x00000000   Number         0  _printf_u.o ABSOLUTE
    ../clib/printf_percent.s                 0x00000000   Number         0  _printf_d.o ABSOLUTE
    ../clib/printf_percent.s                 0x00000000   Number         0  _printf_x.o ABSOLUTE
    ../clib/printf_percent.s                 0x00000000   Number         0  _printf_c.o ABSOLUTE
    ../clib/printf_percent.s                 0x00000000   Number         0  _printf_i.o ABSOLUTE
    ../clib/printf_percent.s                 0x00000000   Number         0  _printf_lli.o ABSOLUTE
    ../clib/printf_percent.s                 0x00000000   Number         0  _printf_a.o ABSOLUTE
    ../clib/printf_percent.s                 0x00000000   Number         0  _printf_g.o ABSOLUTE
    ../clib/printf_percent.s                 0x00000000   Number         0  _printf_n.o ABSOLUTE
    ../clib/printf_percent.s                 0x00000000   Number         0  _printf_ll.o ABSOLUTE
    ../clib/printf_percent.s                 0x00000000   Number         0  _printf_llu.o ABSOLUTE
    ../clib/printf_percent.s                 0x00000000   Number         0  _printf_p.o ABSOLUTE
    ../clib/printf_percent.s                 0x00000000   Number         0  _printf_lld.o ABSOLUTE
    ../clib/printf_percent.s                 0x00000000   Number         0  _printf_percent.o ABSOLUTE
    ../clib/printf_percent.s                 0x00000000   Number         0  _printf_e.o ABSOLUTE
    ../clib/printf_percent.s                 0x00000000   Number         0  _printf_percent_end.o ABSOLUTE
    ../clib/printf_percent.s                 0x00000000   Number         0  _printf_llo.o ABSOLUTE
    ../clib/printf_percent.s                 0x00000000   Number         0  _printf_ls.o ABSOLUTE
    ../clib/printf_percent.s                 0x00000000   Number         0  _printf_o.o ABSOLUTE
    ../clib/printf_percent.s                 0x00000000   Number         0  _printf_lc.o ABSOLUTE
    ../clib/printf_percent.s                 0x00000000   Number         0  _printf_l.o ABSOLUTE
    ../clib/scanf.c                          0x00000000   Number         0  strtod.o ABSOLUTE
    ../clib/scanf.c                          0x00000000   Number         0  _chval.o ABSOLUTE
    ../clib/scanf.c                          0x00000000   Number         0  scanf_hexfp.o ABSOLUTE
    ../clib/scanf.c                          0x00000000   Number         0  scanf_infnan.o ABSOLUTE
    ../clib/scanf.c                          0x00000000   Number         0  strtol.o ABSOLUTE
    ../clib/scanf.c                          0x00000000   Number         0  atoi.o ABSOLUTE
    ../clib/scanf.c                          0x00000000   Number         0  _strtoul.o ABSOLUTE
    ../clib/scanf.c                          0x00000000   Number         0  _sgetc.o ABSOLUTE
    ../clib/scanf.c                          0x00000000   Number         0  scanf_fp.o ABSOLUTE
    ../clib/signal.c                         0x00000000   Number         0  defsig_other.o ABSOLUTE
    ../clib/signal.c                         0x00000000   Number         0  __raise.o ABSOLUTE
    ../clib/signal.c                         0x00000000   Number         0  defsig_rtmem_outer.o ABSOLUTE
    ../clib/signal.c                         0x00000000   Number         0  defsig_rtmem_formal.o ABSOLUTE
    ../clib/signal.c                         0x00000000   Number         0  defsig_general.o ABSOLUTE
    ../clib/signal.c                         0x00000000   Number         0  defsig_exit.o ABSOLUTE
    ../clib/signal.c                         0x00000000   Number         0  defsig_rtmem_inner.o ABSOLUTE
    ../clib/signal.c                         0x00000000   Number         0  defsig_abrt_inner.o ABSOLUTE
    ../clib/signal.c                         0x00000000   Number         0  defsig_fpe_inner.o ABSOLUTE
    ../clib/signal.c                         0x00000000   Number         0  defsig_rtred_inner.o ABSOLUTE
    ../clib/signal.c                         0x00000000   Number         0  defsig_stak_inner.o ABSOLUTE
    ../clib/signal.c                         0x00000000   Number         0  defsig_pvfn_inner.o ABSOLUTE
    ../clib/signal.c                         0x00000000   Number         0  defsig_cppl_inner.o ABSOLUTE
    ../clib/signal.c                         0x00000000   Number         0  defsig_segv_inner.o ABSOLUTE
    ../clib/signal.s                         0x00000000   Number         0  defsig.o ABSOLUTE
    ../clib/stdlib.c                         0x00000000   Number         0  exit.o ABSOLUTE
    ../clib/string.c                         0x00000000   Number         0  memcmp.o ABSOLUTE
    ../clib/string.c                         0x00000000   Number         0  strcat.o ABSOLUTE
    ../clib/string.c                         0x00000000   Number         0  strncmp.o ABSOLUTE
    ../clib/string.c                         0x00000000   Number         0  strlen.o ABSOLUTE
    ../clib/string.c                         0x00000000   Number         0  strcpy.o ABSOLUTE
    ../clib/string.c                         0x00000000   Number         0  strchr.o ABSOLUTE
    ../clib/string.c                         0x00000000   Number         0  strstr.o ABSOLUTE
    ../clib/string.c                         0x00000000   Number         0  strlcpy.o ABSOLUTE
    ../clib/time.c                           0x00000000   Number         0  asctime_internal.o ABSOLUTE
    ../clib/time.c                           0x00000000   Number         0  localtime.o ABSOLUTE
    ../clib/time.c                           0x00000000   Number         0  asctime.o ABSOLUTE
    ../clib/time.c                           0x00000000   Number         0  localtime_internal.o ABSOLUTE
    ../clib/time.c                           0x00000000   Number         0  _monlen.o ABSOLUTE
    ../clib/time.c                           0x00000000   Number         0  mktime.o ABSOLUTE
    ../fplib/d2f.s                           0x00000000   Number         0  d2f.o ABSOLUTE
    ../fplib/daddsub.s                       0x00000000   Number         0  daddsub_clz.o ABSOLUTE
    ../fplib/dcheck1.s                       0x00000000   Number         0  dcheck1.o ABSOLUTE
    ../fplib/dcmpi.s                         0x00000000   Number         0  dcmpi.o ABSOLUTE
    ../fplib/ddiv.s                          0x00000000   Number         0  ddiv.o ABSOLUTE
    ../fplib/deqf.s                          0x00000000   Number         0  deqf.o ABSOLUTE
    ../fplib/dfix.s                          0x00000000   Number         0  dfix.o ABSOLUTE
    ../fplib/dfixu.s                         0x00000000   Number         0  dfixu.o ABSOLUTE
    ../fplib/dflt.s                          0x00000000   Number         0  dflt_clz.o ABSOLUTE
    ../fplib/dleqf.s                         0x00000000   Number         0  dleqf.o ABSOLUTE
    ../fplib/dmul.s                          0x00000000   Number         0  dmul.o ABSOLUTE
    ../fplib/dnaninf.s                       0x00000000   Number         0  dnaninf.o ABSOLUTE
    ../fplib/dretinf.s                       0x00000000   Number         0  dretinf.o ABSOLUTE
    ../fplib/drleqf.s                        0x00000000   Number         0  drleqf.o ABSOLUTE
    ../fplib/dsqrt.s                         0x00000000   Number         0  dsqrt_noumaal.o ABSOLUTE
    ../fplib/f2d.s                           0x00000000   Number         0  f2d.o ABSOLUTE
    ../fplib/faddsub.s                       0x00000000   Number         0  faddsub_clz.o ABSOLUTE
    ../fplib/fcheck1.s                       0x00000000   Number         0  fcheck1.o ABSOLUTE
    ../fplib/fcmpi.s                         0x00000000   Number         0  fcmpi.o ABSOLUTE
    ../fplib/ffix.s                          0x00000000   Number         0  ffix.o ABSOLUTE
    ../fplib/ffixu.s                         0x00000000   Number         0  ffixu.o ABSOLUTE
    ../fplib/fflt.s                          0x00000000   Number         0  fflt_clz.o ABSOLUTE
    ../fplib/fleqf.s                         0x00000000   Number         0  fleqf.o ABSOLUTE
    ../fplib/fmul.s                          0x00000000   Number         0  fmul.o ABSOLUTE
    ../fplib/fnaninf.s                       0x00000000   Number         0  fnaninf.o ABSOLUTE
    ../fplib/fpconst.s                       0x00000000   Number         0  fpconst.o ABSOLUTE
    ../fplib/fpinit.s                        0x00000000   Number         0  fpinit.o ABSOLUTE
    ../fplib/fretinf.s                       0x00000000   Number         0  fretinf.o ABSOLUTE
    ../fplib/istatus.s                       0x00000000   Number         0  istatus.o ABSOLUTE
    ../fplib/printf1.s                       0x00000000   Number         0  printf1.o ABSOLUTE
    ../fplib/printf2.s                       0x00000000   Number         0  printf2.o ABSOLUTE
    ../fplib/printf2a.s                      0x00000000   Number         0  printf2a.o ABSOLUTE
    ../fplib/printf2b.s                      0x00000000   Number         0  printf2b.o ABSOLUTE
    ../fplib/retnan.s                        0x00000000   Number         0  retnan.o ABSOLUTE
    ../fplib/scalbn.s                        0x00000000   Number         0  scalbn.o ABSOLUTE
    ../fplib/scalbnf.s                       0x00000000   Number         0  scalbnf.o ABSOLUTE
    ../fplib/scanf1.s                        0x00000000   Number         0  scanf1.o ABSOLUTE
    ../fplib/scanf2.s                        0x00000000   Number         0  scanf2.o ABSOLUTE
    ../fplib/scanf2a.s                       0x00000000   Number         0  scanf2a.o ABSOLUTE
    ../fplib/scanf2b.s                       0x00000000   Number         0  scanf2b.o ABSOLUTE
    ../fplib/trapv.s                         0x00000000   Number         0  trapv.o ABSOLUTE
    ../fplib/usenofp.s                       0x00000000   Number         0  usenofp.o ABSOLUTE
    ../mathlib/atof.c                        0x00000000   Number         0  atof.o ABSOLUTE
    ../mathlib/cos.c                         0x00000000   Number         0  cos_x.o ABSOLUTE
    ../mathlib/cos.c                         0x00000000   Number         0  cos.o ABSOLUTE
    ../mathlib/cos_i.c                       0x00000000   Number         0  cos_i.o ABSOLUTE
    ../mathlib/dunder.c                      0x00000000   Number         0  dunder.o ABSOLUTE
    ../mathlib/fpclassify.c                  0x00000000   Number         0  fpclassify.o ABSOLUTE
    ../mathlib/frexp.c                       0x00000000   Number         0  frexp.o ABSOLUTE
    ../mathlib/ldexp.c                       0x00000000   Number         0  ldexp.o ABSOLUTE
    ../mathlib/ldexp.c                       0x00000000   Number         0  ldexp_x.o ABSOLUTE
    ../mathlib/narrow.c                      0x00000000   Number         0  narrow.o ABSOLUTE
    ../mathlib/poly.c                        0x00000000   Number         0  poly.o ABSOLUTE
    ../mathlib/pow.c                         0x00000000   Number         0  pow_x.o ABSOLUTE
    ../mathlib/pow.c                         0x00000000   Number         0  pow.o ABSOLUTE
    ../mathlib/qnan.c                        0x00000000   Number         0  qnan.o ABSOLUTE
    ../mathlib/rred.c                        0x00000000   Number         0  rred.o ABSOLUTE
    ../mathlib/sin.c                         0x00000000   Number         0  sin_x.o ABSOLUTE
    ../mathlib/sin.c                         0x00000000   Number         0  sin.o ABSOLUTE
    ../mathlib/sin_i.c                       0x00000000   Number         0  sin_i.o ABSOLUTE
    ../mathlib/sin_i.c                       0x00000000   Number         0  sin_i_x.o ABSOLUTE
    ../mathlib/sqrt.c                        0x00000000   Number         0  sqrt_x.o ABSOLUTE
    ../mathlib/sqrt.c                        0x00000000   Number         0  sqrt.o ABSOLUTE
    ByteStream\ByteStream.c                  0x00000000   Number         0  bytestream.o ABSOLUTE
    CM3\CoreSupport\core_cm3.c               0x00000000   Number         0  core_cm3.o ABSOLUTE
    CM3\DeviceSupport\system_stm32f10x.c     0x00000000   Number         0  system_stm32f10x.o ABSOLUTE
    CM3\\CoreSupport\\core_cm3.c             0x00000000   Number         0  core_cm3.o ABSOLUTE
    CRC16-TELTONIKA\crc16_teltonika.c        0x00000000   Number         0  crc16_teltonika.o ABSOLUTE
    CRC16\CRC16.c                            0x00000000   Number         0  crc16.o ABSOLUTE
    CRC32\crc32.c                            0x00000000   Number         0  crc32.o ABSOLUTE
    CRC8\crc8.c                              0x00000000   Number         0  crc8.o ABSOLUTE
    Control\Control_new.c                    0x00000000   Number         0  control_new.o ABSOLUTE
    Disk\Disk.c                              0x00000000   Number         0  disk.o ABSOLUTE
    Epsilon\epsilon.c                        0x00000000   Number         0  epsilon.o ABSOLUTE
    FM25\fm25cl64.c                          0x00000000   Number         0  fm25cl64.o ABSOLUTE
    FramRingBuf\FramRingBuf.c                0x00000000   Number         0  framringbuf.o ABSOLUTE
    IO\io.c                                  0x00000000   Number         0  io.o ABSOLUTE
    LedIndicator\LedIndicator.c              0x00000000   Number         0  ledindicator.o ABSOLUTE
    ModemRingBuf\ModemRingBuf.c              0x00000000   Number         0  modemringbuf.o ABSOLUTE
    QPC\port\qk_port.s                       0x00000000   Number         0  qk_port.o ABSOLUTE
    QPC\qep\qep.c                            0x00000000   Number         0  qep.o ABSOLUTE
    QPC\qep\qfsm_dis.c                       0x00000000   Number         0  qfsm_dis.o ABSOLUTE
    QPC\qep\qfsm_ini.c                       0x00000000   Number         0  qfsm_ini.o ABSOLUTE
    QPC\qep\qhsm_dis.c                       0x00000000   Number         0  qhsm_dis.o ABSOLUTE
    QPC\qep\qhsm_in.c                        0x00000000   Number         0  qhsm_in.o ABSOLUTE
    QPC\qep\qhsm_ini.c                       0x00000000   Number         0  qhsm_ini.o ABSOLUTE
    QPC\qep\qhsm_top.c                       0x00000000   Number         0  qhsm_top.o ABSOLUTE
    QPC\qep\qmsm_dis.c                       0x00000000   Number         0  qmsm_dis.o ABSOLUTE
    QPC\qep\qmsm_ini.c                       0x00000000   Number         0  qmsm_ini.o ABSOLUTE
    QPC\qf\qa_ctor.c                         0x00000000   Number         0  qa_ctor.o ABSOLUTE
    QPC\qf\qa_defer.c                        0x00000000   Number         0  qa_defer.o ABSOLUTE
    QPC\qf\qa_fifo.c                         0x00000000   Number         0  qa_fifo.o ABSOLUTE
    QPC\qf\qa_get_.c                         0x00000000   Number         0  qa_get_.o ABSOLUTE
    QPC\qf\qa_lifo.c                         0x00000000   Number         0  qa_lifo.o ABSOLUTE
    QPC\qf\qa_sub.c                          0x00000000   Number         0  qa_sub.o ABSOLUTE
    QPC\qf\qa_usub.c                         0x00000000   Number         0  qa_usub.o ABSOLUTE
    QPC\qf\qa_usuba.c                        0x00000000   Number         0  qa_usuba.o ABSOLUTE
    QPC\qf\qeq_fifo.c                        0x00000000   Number         0  qeq_fifo.o ABSOLUTE
    QPC\qf\qeq_get.c                         0x00000000   Number         0  qeq_get.o ABSOLUTE
    QPC\qf\qeq_init.c                        0x00000000   Number         0  qeq_init.o ABSOLUTE
    QPC\qf\qeq_lifo.c                        0x00000000   Number         0  qeq_lifo.o ABSOLUTE
    QPC\qf\qf_act.c                          0x00000000   Number         0  qf_act.o ABSOLUTE
    QPC\qf\qf_gc.c                           0x00000000   Number         0  qf_gc.o ABSOLUTE
    QPC\qf\qf_log2.c                         0x00000000   Number         0  qf_log2.o ABSOLUTE
    QPC\qf\qf_new.c                          0x00000000   Number         0  qf_new.o ABSOLUTE
    QPC\qf\qf_pool.c                         0x00000000   Number         0  qf_pool.o ABSOLUTE
    QPC\qf\qf_psini.c                        0x00000000   Number         0  qf_psini.o ABSOLUTE
    QPC\qf\qf_pspub.c                        0x00000000   Number         0  qf_pspub.o ABSOLUTE
    QPC\qf\qf_pwr2.c                         0x00000000   Number         0  qf_pwr2.o ABSOLUTE
    QPC\qf\qf_tick.c                         0x00000000   Number         0  qf_tick.o ABSOLUTE
    QPC\qf\qma_ctor.c                        0x00000000   Number         0  qma_ctor.o ABSOLUTE
    QPC\qf\qmp_get.c                         0x00000000   Number         0  qmp_get.o ABSOLUTE
    QPC\qf\qmp_init.c                        0x00000000   Number         0  qmp_init.o ABSOLUTE
    QPC\qf\qmp_put.c                         0x00000000   Number         0  qmp_put.o ABSOLUTE
    QPC\qf\qte_arm.c                         0x00000000   Number         0  qte_arm.o ABSOLUTE
    QPC\qf\qte_ctor.c                        0x00000000   Number         0  qte_ctor.o ABSOLUTE
    QPC\qf\qte_ctr.c                         0x00000000   Number         0  qte_ctr.o ABSOLUTE
    QPC\qf\qte_darm.c                        0x00000000   Number         0  qte_darm.o ABSOLUTE
    QPC\qf\qte_rarm.c                        0x00000000   Number         0  qte_rarm.o ABSOLUTE
    QPC\qk\qk.c                              0x00000000   Number         0  qk.o ABSOLUTE
    QPC\qk\qk_ext.c                          0x00000000   Number         0  qk_ext.o ABSOLUTE
    QPC\qk\qk_mutex.c                        0x00000000   Number         0  qk_mutex.o ABSOLUTE
    QPC\qk\qk_sched.c                        0x00000000   Number         0  qk_sched.o ABSOLUTE
    QPC\qs\qs.c                              0x00000000   Number         0  qs.o ABSOLUTE
    QPC\qs\qs_.c                             0x00000000   Number         0  qs_.o ABSOLUTE
    QPC\qs\qs_blk.c                          0x00000000   Number         0  qs_blk.o ABSOLUTE
    QPC\qs\qs_byte.c                         0x00000000   Number         0  qs_byte.o ABSOLUTE
    QPC\qs\qs_dict.c                         0x00000000   Number         0  qs_dict.o ABSOLUTE
    QPC\qs\qs_f32.c                          0x00000000   Number         0  qs_f32.o ABSOLUTE
    QPC\qs\qs_f64.c                          0x00000000   Number         0  qs_f64.o ABSOLUTE
    QPC\qs\qs_mem.c                          0x00000000   Number         0  qs_mem.o ABSOLUTE
    QPC\qs\qs_str.c                          0x00000000   Number         0  qs_str.o ABSOLUTE
    QPC\qs\qs_u64.c                          0x00000000   Number         0  qs_u64.o ABSOLUTE
    RF-10\rf10.c                             0x00000000   Number         0  rf10.o ABSOLUTE
    RS485\rs485.c                            0x00000000   Number         0  rs485.o ABSOLUTE
    SMS\ParserSms.c                          0x00000000   Number         0  parsersms.o ABSOLUTE
    TL10\tl10.c                              0x00000000   Number         0  tl10.o ABSOLUTE
    at45\at45db.c                            0x00000000   Number         0  at45db.o ABSOLUTE
    bsp\bsp.c                                0x00000000   Number         0  bsp.o ABSOLUTE
    config\config.c                          0x00000000   Number         0  config.o ABSOLUTE
    dc.s                                     0x00000000   Number         0  dc.o ABSOLUTE
    main\main.c                              0x00000000   Number         0  main.o ABSOLUTE
    memory\memory_spi.c                      0x00000000   Number         0  memory_spi.o ABSOLUTE
    modem\modem.c                            0x00000000   Number         0  modem.o ABSOLUTE
    modem\modem_parser.c                     0x00000000   Number         0  modem_parser.o ABSOLUTE
    modem\modem_sim900.c                     0x00000000   Number         0  modem_sim900.o ABSOLUTE
    my_time\my_time.c                        0x00000000   Number         0  my_time.o ABSOLUTE
    nav_filter\nav_filter.c                  0x00000000   Number         0  nav_filter.o ABSOLUTE
    navigation\gps_ring_buf.c                0x00000000   Number         0  gps_ring_buf.o ABSOLUTE
    navigation_old\nmea_parser.c             0x00000000   Number         0  nmea_parser.o ABSOLUTE
    startup\startup_stm32f10x_hd.s           0x00000000   Number         0  startup_stm32f10x_hd.o ABSOLUTE
    stm_lib\src\misc.c                       0x00000000   Number         0  misc.o ABSOLUTE
    stm_lib\src\stm32f10x_adc.c              0x00000000   Number         0  stm32f10x_adc.o ABSOLUTE
    stm_lib\src\stm32f10x_dma.c              0x00000000   Number         0  stm32f10x_dma.o ABSOLUTE
    stm_lib\src\stm32f10x_exti.c             0x00000000   Number         0  stm32f10x_exti.o ABSOLUTE
    stm_lib\src\stm32f10x_flash.c            0x00000000   Number         0  stm32f10x_flash.o ABSOLUTE
    stm_lib\src\stm32f10x_gpio.c             0x00000000   Number         0  stm32f10x_gpio.o ABSOLUTE
    stm_lib\src\stm32f10x_iwdg.c             0x00000000   Number         0  stm32f10x_iwdg.o ABSOLUTE
    stm_lib\src\stm32f10x_rcc.c              0x00000000   Number         0  stm32f10x_rcc.o ABSOLUTE
    stm_lib\src\stm32f10x_spi.c              0x00000000   Number         0  stm32f10x_spi.o ABSOLUTE
    stm_lib\src\stm32f10x_tim.c              0x00000000   Number         0  stm32f10x_tim.o ABSOLUTE
    stm_lib\src\stm32f10x_usart.c            0x00000000   Number         0  stm32f10x_usart.o ABSOLUTE
    RESET                                    0x08021000   Section      304  startup_stm32f10x_hd.o(RESET)
    !!!main                                  0x08021130   Section        8  __main.o(!!!main)
    !!!scatter                               0x08021138   Section       52  __scatter.o(!!!scatter)
    !!dczerorl2                              0x0802116c   Section       90  __dczerorl2.o(!!dczerorl2)
    !!handler_zi                             0x080211c8   Section       28  __scatter_zi.o(!!handler_zi)
    .ARM.Collect$$_printf_percent$$00000000  0x080211e4   Section        0  _printf_percent.o(.ARM.Collect$$_printf_percent$$00000000)
    .ARM.Collect$$_printf_percent$$00000001  0x080211e4   Section        6  _printf_n.o(.ARM.Collect$$_printf_percent$$00000001)
    .ARM.Collect$$_printf_percent$$00000002  0x080211ea   Section        6  _printf_p.o(.ARM.Collect$$_printf_percent$$00000002)
    .ARM.Collect$$_printf_percent$$00000003  0x080211f0   Section        6  _printf_f.o(.ARM.Collect$$_printf_percent$$00000003)
    .ARM.Collect$$_printf_percent$$00000004  0x080211f6   Section        6  _printf_e.o(.ARM.Collect$$_printf_percent$$00000004)
    .ARM.Collect$$_printf_percent$$00000005  0x080211fc   Section        6  _printf_g.o(.ARM.Collect$$_printf_percent$$00000005)
    .ARM.Collect$$_printf_percent$$00000006  0x08021202   Section        6  _printf_a.o(.ARM.Collect$$_printf_percent$$00000006)
    .ARM.Collect$$_printf_percent$$00000007  0x08021208   Section       10  _printf_ll.o(.ARM.Collect$$_printf_percent$$00000007)
    .ARM.Collect$$_printf_percent$$00000008  0x08021212   Section        6  _printf_i.o(.ARM.Collect$$_printf_percent$$00000008)
    .ARM.Collect$$_printf_percent$$00000009  0x08021218   Section        6  _printf_d.o(.ARM.Collect$$_printf_percent$$00000009)
    .ARM.Collect$$_printf_percent$$0000000A  0x0802121e   Section        6  _printf_u.o(.ARM.Collect$$_printf_percent$$0000000A)
    .ARM.Collect$$_printf_percent$$0000000B  0x08021224   Section        6  _printf_o.o(.ARM.Collect$$_printf_percent$$0000000B)
    .ARM.Collect$$_printf_percent$$0000000C  0x0802122a   Section        6  _printf_x.o(.ARM.Collect$$_printf_percent$$0000000C)
    .ARM.Collect$$_printf_percent$$0000000D  0x08021230   Section        6  _printf_lli.o(.ARM.Collect$$_printf_percent$$0000000D)
    .ARM.Collect$$_printf_percent$$0000000E  0x08021236   Section        6  _printf_lld.o(.ARM.Collect$$_printf_percent$$0000000E)
    .ARM.Collect$$_printf_percent$$0000000F  0x0802123c   Section        6  _printf_llu.o(.ARM.Collect$$_printf_percent$$0000000F)
    .ARM.Collect$$_printf_percent$$00000010  0x08021242   Section        6  _printf_llo.o(.ARM.Collect$$_printf_percent$$00000010)
    .ARM.Collect$$_printf_percent$$00000011  0x08021248   Section        6  _printf_llx.o(.ARM.Collect$$_printf_percent$$00000011)
    .ARM.Collect$$_printf_percent$$00000012  0x0802124e   Section       10  _printf_l.o(.ARM.Collect$$_printf_percent$$00000012)
    .ARM.Collect$$_printf_percent$$00000013  0x08021258   Section        6  _printf_c.o(.ARM.Collect$$_printf_percent$$00000013)
    .ARM.Collect$$_printf_percent$$00000014  0x0802125e   Section        6  _printf_s.o(.ARM.Collect$$_printf_percent$$00000014)
    .ARM.Collect$$_printf_percent$$00000015  0x08021264   Section        6  _printf_lc.o(.ARM.Collect$$_printf_percent$$00000015)
    .ARM.Collect$$_printf_percent$$00000016  0x0802126a   Section        6  _printf_ls.o(.ARM.Collect$$_printf_percent$$00000016)
    .ARM.Collect$$_printf_percent$$00000017  0x08021270   Section        4  _printf_percent_end.o(.ARM.Collect$$_printf_percent$$00000017)
    .ARM.Collect$$libinit$$00000000          0x08021274   Section        2  libinit.o(.ARM.Collect$$libinit$$00000000)
    .ARM.Collect$$libinit$$00000002          0x08021276   Section        0  libinit2.o(.ARM.Collect$$libinit$$00000002)
    .ARM.Collect$$libinit$$00000004          0x08021276   Section        0  libinit2.o(.ARM.Collect$$libinit$$00000004)
    .ARM.Collect$$libinit$$0000000A          0x08021276   Section        0  libinit2.o(.ARM.Collect$$libinit$$0000000A)
    .ARM.Collect$$libinit$$0000000C          0x08021276   Section        0  libinit2.o(.ARM.Collect$$libinit$$0000000C)
    .ARM.Collect$$libinit$$0000000E          0x08021276   Section        0  libinit2.o(.ARM.Collect$$libinit$$0000000E)
    .ARM.Collect$$libinit$$0000000F          0x08021276   Section        6  libinit2.o(.ARM.Collect$$libinit$$0000000F)
    .ARM.Collect$$libinit$$00000011          0x0802127c   Section        0  libinit2.o(.ARM.Collect$$libinit$$00000011)
    .ARM.Collect$$libinit$$00000012          0x0802127c   Section       12  libinit2.o(.ARM.Collect$$libinit$$00000012)
    .ARM.Collect$$libinit$$00000013          0x08021288   Section        0  libinit2.o(.ARM.Collect$$libinit$$00000013)
    .ARM.Collect$$libinit$$00000015          0x08021288   Section        0  libinit2.o(.ARM.Collect$$libinit$$00000015)
    .ARM.Collect$$libinit$$00000016          0x08021288   Section       10  libinit2.o(.ARM.Collect$$libinit$$00000016)
    .ARM.Collect$$libinit$$00000017          0x08021292   Section        0  libinit2.o(.ARM.Collect$$libinit$$00000017)
    .ARM.Collect$$libinit$$00000018          0x08021292   Section       10  libinit2.o(.ARM.Collect$$libinit$$00000018)
    .ARM.Collect$$libinit$$00000019          0x0802129c   Section        0  libinit2.o(.ARM.Collect$$libinit$$00000019)
    .ARM.Collect$$libinit$$0000001B          0x0802129c   Section        0  libinit2.o(.ARM.Collect$$libinit$$0000001B)
    .ARM.Collect$$libinit$$0000001D          0x0802129c   Section        0  libinit2.o(.ARM.Collect$$libinit$$0000001D)
    .ARM.Collect$$libinit$$0000001F          0x0802129c   Section        0  libinit2.o(.ARM.Collect$$libinit$$0000001F)
    .ARM.Collect$$libinit$$00000021          0x0802129c   Section        0  libinit2.o(.ARM.Collect$$libinit$$00000021)
    .ARM.Collect$$libinit$$00000023          0x0802129c   Section        0  libinit2.o(.ARM.Collect$$libinit$$00000023)
    .ARM.Collect$$libinit$$00000025          0x0802129c   Section        0  libinit2.o(.ARM.Collect$$libinit$$00000025)
    .ARM.Collect$$libinit$$0000002C          0x0802129c   Section        0  libinit2.o(.ARM.Collect$$libinit$$0000002C)
    .ARM.Collect$$libinit$$0000002E          0x0802129c   Section        0  libinit2.o(.ARM.Collect$$libinit$$0000002E)
    .ARM.Collect$$libinit$$00000030          0x0802129c   Section        0  libinit2.o(.ARM.Collect$$libinit$$00000030)
    .ARM.Collect$$libinit$$00000032          0x0802129c   Section        0  libinit2.o(.ARM.Collect$$libinit$$00000032)
    .ARM.Collect$$libinit$$00000033          0x0802129c   Section        2  libinit2.o(.ARM.Collect$$libinit$$00000033)
    .ARM.Collect$$libshutdown$$00000000      0x0802129e   Section        2  libshutdown.o(.ARM.Collect$$libshutdown$$00000000)
    .ARM.Collect$$libshutdown$$00000003      0x080212a0   Section        0  libshutdown2.o(.ARM.Collect$$libshutdown$$00000003)
    .ARM.Collect$$libshutdown$$00000006      0x080212a0   Section        0  libshutdown2.o(.ARM.Collect$$libshutdown$$00000006)
    .ARM.Collect$$libshutdown$$00000009      0x080212a0   Section        0  libshutdown2.o(.ARM.Collect$$libshutdown$$00000009)
    .ARM.Collect$$libshutdown$$0000000B      0x080212a0   Section        0  libshutdown2.o(.ARM.Collect$$libshutdown$$0000000B)
    .ARM.Collect$$libshutdown$$0000000E      0x080212a0   Section        0  libshutdown2.o(.ARM.Collect$$libshutdown$$0000000E)
    .ARM.Collect$$libshutdown$$0000000F      0x080212a0   Section        2  libshutdown2.o(.ARM.Collect$$libshutdown$$0000000F)
    .ARM.Collect$$rtentry$$00000000          0x080212a2   Section        0  __rtentry.o(.ARM.Collect$$rtentry$$00000000)
    .ARM.Collect$$rtentry$$00000002          0x080212a2   Section        0  __rtentry2.o(.ARM.Collect$$rtentry$$00000002)
    .ARM.Collect$$rtentry$$00000004          0x080212a2   Section        6  __rtentry4.o(.ARM.Collect$$rtentry$$00000004)
    .ARM.Collect$$rtentry$$00000009          0x080212a8   Section        0  __rtentry2.o(.ARM.Collect$$rtentry$$00000009)
    .ARM.Collect$$rtentry$$0000000A          0x080212a8   Section        4  __rtentry2.o(.ARM.Collect$$rtentry$$0000000A)
    .ARM.Collect$$rtentry$$0000000C          0x080212ac   Section        0  __rtentry2.o(.ARM.Collect$$rtentry$$0000000C)
    .ARM.Collect$$rtentry$$0000000D          0x080212ac   Section        8  __rtentry2.o(.ARM.Collect$$rtentry$$0000000D)
    .ARM.Collect$$rtexit$$00000000           0x080212b4   Section        2  rtexit.o(.ARM.Collect$$rtexit$$00000000)
    .ARM.Collect$$rtexit$$00000002           0x080212b6   Section        0  rtexit2.o(.ARM.Collect$$rtexit$$00000002)
    .ARM.Collect$$rtexit$$00000003           0x080212b6   Section        4  rtexit2.o(.ARM.Collect$$rtexit$$00000003)
    .ARM.Collect$$rtexit$$00000004           0x080212ba   Section        6  rtexit2.o(.ARM.Collect$$rtexit$$00000004)
    .text                                    0x080212c0   Section       72  startup_stm32f10x_hd.o(.text)
    .text                                    0x08021308   Section        0  main.o(.text)
    .text                                    0x08021508   Section        0  bsp.o(.text)
    LedGsm2_init                             0x080216a5   Thumb Code    32  bsp.o(.text)
    LSM303_init                              0x080216c5   Thumb Code    30  bsp.o(.text)
    RS232_init                               0x080216e3   Thumb Code    30  bsp.o(.text)
    NetLight_init                            0x08021701   Thumb Code    32  bsp.o(.text)
    Dout_init                                0x08021721   Thumb Code    32  bsp.o(.text)
    Clock_init                               0x08021741   Thumb Code   110  bsp.o(.text)
    NVIC_SetPriority                         0x08021985   Thumb Code    32  bsp.o(.text)
    .text                                    0x080219ac   Section        0  config.o(.text)
    OnOffIntToStr                            0x080219ad   Thumb Code    12  config.o(.text)
    StrToUper                                0x080219b9   Thumb Code    40  config.o(.text)
    OnOffStrToInt                            0x080219e1   Thumb Code    42  config.o(.text)
    SetProtocol                              0x08021a0b   Thumb Code    84  config.o(.text)
    SetSim                                   0x08021a5f   Thumb Code    54  config.o(.text)
    SetMainIp                                0x08021a95   Thumb Code    34  config.o(.text)
    SetMainPort                              0x08021ab7   Thumb Code    40  config.o(.text)
    SetServiceIp                             0x08021adf   Thumb Code    34  config.o(.text)
    SetServicePort                           0x08021b01   Thumb Code    40  config.o(.text)
    CheckFinMode                             0x08021b29   Thumb Code    18  config.o(.text)
    Set1FinMode                              0x08021b3b   Thumb Code    36  config.o(.text)
    Set2FinMode                              0x08021b5f   Thumb Code    36  config.o(.text)
    Start                                    0x08021b83   Thumb Code    24  config.o(.text)
    Stop                                     0x08021b9b   Thumb Code    24  config.o(.text)
    CheckRS485DeviceName                     0x08021bb3   Thumb Code    20  config.o(.text)
    Set1RS485Dev                             0x08021bc7   Thumb Code    34  config.o(.text)
    Set2RS485Dev                             0x08021be9   Thumb Code    34  config.o(.text)
    Set3RS485Dev                             0x08021c0b   Thumb Code    34  config.o(.text)
    Set4RS485Dev                             0x08021c2d   Thumb Code    34  config.o(.text)
    Set5RS485Dev                             0x08021c4f   Thumb Code    34  config.o(.text)
    Set6RS485Dev                             0x08021c71   Thumb Code    34  config.o(.text)
    Set1RS485Addr                            0x08021c93   Thumb Code    18  config.o(.text)
    Set2RS485Addr                            0x08021ca5   Thumb Code    18  config.o(.text)
    Set3RS485Addr                            0x08021cb7   Thumb Code    18  config.o(.text)
    Set4RS485Addr                            0x08021cc9   Thumb Code    18  config.o(.text)
    Set5RS485Addr                            0x08021cdb   Thumb Code    18  config.o(.text)
    Set6RS485Addr                            0x08021ced   Thumb Code    20  config.o(.text)
    Set1RS485Out                             0x08021d01   Thumb Code    26  config.o(.text)
    Set2RS485Out                             0x08021d1b   Thumb Code    26  config.o(.text)
    Set3RS485Out                             0x08021d35   Thumb Code    26  config.o(.text)
    Set4RS485Out                             0x08021d4f   Thumb Code    26  config.o(.text)
    Set5RS485Out                             0x08021d69   Thumb Code    26  config.o(.text)
    Set6RS485Out                             0x08021d83   Thumb Code    58  config.o(.text)
    DutDeltaN                                0x08021dbd   Thumb Code    30  config.o(.text)
    DutLastN                                 0x08021ddb   Thumb Code    24  config.o(.text)
    SetFwVerNew                              0x08021df3   Thumb Code    30  config.o(.text)
    SetPointStoreAngle                       0x08021e11   Thumb Code    26  config.o(.text)
    SetPointStoreTime                        0x08021e2b   Thumb Code    30  config.o(.text)
    SetPointStoreDist                        0x08021e49   Thumb Code    30  config.o(.text)
    SetNavFilter                             0x08021e67   Thumb Code    26  config.o(.text)
    SetPacketSendTime                        0x08021e81   Thumb Code    30  config.o(.text)
    SetPacketSendDist                        0x08021e9f   Thumb Code    30  config.o(.text)
    SetPacketPrioFilter                      0x08021ebd   Thumb Code    28  config.o(.text)
    SetUssdBalance1                          0x08021ed9   Thumb Code    20  config.o(.text)
    SetGprsApn1                              0x08021eed   Thumb Code   104  config.o(.text)
    SetGprsUname1                            0x08021f55   Thumb Code    34  config.o(.text)
    SetGprsPsw1                              0x08021f77   Thumb Code    34  config.o(.text)
    SetUssdBalance2                          0x08021f99   Thumb Code    24  config.o(.text)
    SetGprsApn2                              0x08021fb1   Thumb Code    36  config.o(.text)
    SetGprsUname2                            0x08021fd5   Thumb Code    36  config.o(.text)
    SetGprsPsw2                              0x08021ff9   Thumb Code    36  config.o(.text)
    Config                                   0x0802201d   Thumb Code    68  config.o(.text)
    Rrt                                      0x08022061   Thumb Code    38  config.o(.text)
    Reboot                                   0x08022087   Thumb Code    28  config.o(.text)
    GetGprs                                  0x080220a3   Thumb Code    12  config.o(.text)
    GetNav                                   0x080220af   Thumb Code    12  config.o(.text)
    GetPack                                  0x080220bb   Thumb Code    12  config.o(.text)
    GetVer                                   0x080220c7   Thumb Code    12  config.o(.text)
    GetRS485                                 0x080220d3   Thumb Code    12  config.o(.text)
    GetBalance                               0x080220df   Thumb Code    12  config.o(.text)
    GetStatus                                0x080220eb   Thumb Code    12  config.o(.text)
    GetModem                                 0x080220f7   Thumb Code    12  config.o(.text)
    GetImei                                  0x08022103   Thumb Code    12  config.o(.text)
    .text                                    0x08022488   Section        0  system_stm32f10x.o(.text)
    SetSysClockTo72                          0x08022489   Thumb Code   168  system_stm32f10x.o(.text)
    SetSysClock                              0x08022531   Thumb Code     2  system_stm32f10x.o(.text)
    .text                                    0x08022574   Section        0  crc32.o(.text)
    .text                                    0x0802259c   Section        0  crc16.o(.text)
    .text                                    0x080225fc   Section      104  qk_port.o(.text)
    svc_ret                                  0x0802264b   Thumb Code     0  qk_port.o(.text)
    .text                                    0x08022664   Section        0  stm32f10x_dma.o(.text)
    .text                                    0x08022838   Section        0  stm32f10x_flash.o(.text)
    delay                                    0x080228a5   Thumb Code    22  stm32f10x_flash.o(.text)
    .text                                    0x08022c50   Section        0  stm32f10x_gpio.o(.text)
    .text                                    0x08022ebc   Section        0  stm32f10x_rcc.o(.text)
    .text                                    0x080231ac   Section        0  stm32f10x_spi.o(.text)
    .text                                    0x08023458   Section        0  stm32f10x_tim.o(.text)
    TI4_Config                               0x08023725   Thumb Code    54  stm32f10x_tim.o(.text)
    TI3_Config                               0x0802376b   Thumb Code    50  stm32f10x_tim.o(.text)
    TI2_Config                               0x080237b5   Thumb Code    54  stm32f10x_tim.o(.text)
    TI1_Config                               0x080237fb   Thumb Code    46  stm32f10x_tim.o(.text)
    .text                                    0x08023e18   Section        0  stm32f10x_usart.o(.text)
    .text                                    0x08024140   Section        0  misc.o(.text)
    .text                                    0x080241f8   Section        0  stm32f10x_exti.o(.text)
    .text                                    0x080242f4   Section        0  modem.o(.text)
    SendMsmSignal                            0x08024333   Thumb Code    16  modem.o(.text)
    ClearErrorCounters                       0x080243e9   Thumb Code     8  modem.o(.text)
    AddStateHistory                          0x080243f1   Thumb Code    20  modem.o(.text)
    Modem_power_on_start_up_fatal_error_60   0x08024405   Thumb Code   174  modem.o(.text)
    Modem_sim_fatal_error_66                 0x080244b3   Thumb Code   166  modem.o(.text)
    Modem_sim_error_20                       0x08024559   Thumb Code   160  modem.o(.text)
    Modem_power_on_start_up_error_3          0x080245f9   Thumb Code   202  modem.o(.text)
    Modem_sim_lock_fatal_error_67            0x080246c3   Thumb Code   418  modem.o(.text)
    Modem_sim_lock_error_21                  0x08024865   Thumb Code   134  modem.o(.text)
    Modem_sms_waiting_unread_ok_33           0x080248eb   Thumb Code   164  modem.o(.text)
    Modem_sms_waiting_read_ok_32             0x0802498f   Thumb Code    82  modem.o(.text)
    Modem_sms_final_39                       0x080249e1   Thumb Code    50  modem.o(.text)
    ModemSmsDeleteAll50                      0x08024a13   Thumb Code    74  modem.o(.text)
    Modem_sms_read_next_31                   0x08024a5d   Thumb Code   194  modem.o(.text)
    Modem_sms_delete_34                      0x08024b1f   Thumb Code   406  modem.o(.text)
    ModemSmsSendAnsw36                       0x08024cb5   Thumb Code   244  modem.o(.text)
    ModemSmsRequestToSendAnswer_35           0x08024da9   Thumb Code   138  modem.o(.text)
    Modem_sms_check_balance_38               0x08024e33   Thumb Code   198  modem.o(.text)
    MakeImeiSms                              0x08024ef9   Thumb Code    34  modem.o(.text)
    MakeRS485Sms                             0x08024f1b   Thumb Code   170  modem.o(.text)
    MakeStatusSms                            0x08024fc5   Thumb Code   700  modem.o(.text)
    MakeVerSms                               0x08025281   Thumb Code   154  modem.o(.text)
    MakeModemSms                             0x0802531b   Thumb Code    90  modem.o(.text)
    MakePackSms                              0x08025375   Thumb Code   148  modem.o(.text)
    MakeNavSms                               0x08025409   Thumb Code   182  modem.o(.text)
    MakeGprsSms                              0x080254bf   Thumb Code   710  modem.o(.text)
    ModemSmsProcSmsFlags37                   0x08025785   Thumb Code   694  modem.o(.text)
    Modem_sms_super_30                       0x08025a3b   Thumb Code   670  modem.o(.text)
    Modem_gsm_open_fatal_error_61            0x08025cd9   Thumb Code   198  modem.o(.text)
    Modem_gsm_open_error_8                   0x08025d9f   Thumb Code   196  modem.o(.text)
    Modem_open_gprs_fatal_error_62           0x08025e63   Thumb Code   188  modem.o(.text)
    Modem_open_gprs_error_12                 0x08025f1f   Thumb Code   220  modem.o(.text)
    Modem_close_connection_16                0x08025ffb   Thumb Code   418  modem.o(.text)
    Modem_open_connection_fatal_error_63     0x0802619d   Thumb Code   152  modem.o(.text)
    Modem_close_gprs_10                      0x08026235   Thumb Code   152  modem.o(.text)
    Modem_open_connection_error_17           0x080262cd   Thumb Code   206  modem.o(.text)
    Modem_authorization_fatal_error_64       0x0802639b   Thumb Code   142  modem.o(.text)
    Modem_authorization_error_19             0x08026429   Thumb Code   206  modem.o(.text)
    Modem_send_packet_fatal_error_65         0x080264f7   Thumb Code   424  modem.o(.text)
    Modem_send_packet_error_23               0x0802669f   Thumb Code   166  modem.o(.text)
    Modem_send_packet_22                     0x08026745   Thumb Code   446  modem.o(.text)
    Modem_tcp_is_open_state_13               0x08026903   Thumb Code   198  modem.o(.text)
    XTDeviceAuthPacketMaker                  0x080269c9   Thumb Code    72  modem.o(.text)
    FM2200AuthPacketMaker                    0x08026a11   Thumb Code   240  modem.o(.text)
    Modem_authorization_18                   0x08026b01   Thumb Code   248  modem.o(.text)
    Modem_open_connection_15                 0x08026bf9   Thumb Code   272  modem.o(.text)
    Modem_check_if_connected_14              0x08026d09   Thumb Code   328  modem.o(.text)
    Modem_upd_connect_error_47               0x08026e51   Thumb Code    54  modem.o(.text)
    Modem_upd_send_packet_43                 0x08026e87   Thumb Code   790  modem.o(.text)
    Modem_upd_get_remain_fw_data_46          0x0802719d   Thumb Code   186  modem.o(.text)
    Modem_upd_ready_44                       0x08027257   Thumb Code    80  modem.o(.text)
    Modem_upd_auth_42                        0x080272a7   Thumb Code   214  modem.o(.text)
    Modem_upd_open_conn_41                   0x0802737d   Thumb Code   242  modem.o(.text)
    Modem_upd_super_40                       0x0802746f   Thumb Code   464  modem.o(.text)
    Modem_gprs_is_open_state_11              0x0802763f   Thumb Code   164  modem.o(.text)
    Modem_open_gprs_9                        0x080276e3   Thumb Code   164  modem.o(.text)
    Modem_gsm_is_open_7                      0x08027787   Thumb Code   144  modem.o(.text)
    Modem_gsm_open_6                         0x08027817   Thumb Code   212  modem.o(.text)
    SelectSim                                0x080278eb   Thumb Code   112  modem.o(.text)
    Modem_power_on_start_up_2                0x0802795b   Thumb Code   438  modem.o(.text)
    Modem_hard_reset_5                       0x08027b11   Thumb Code   132  modem.o(.text)
    ModemUart_on                             0x08027b95   Thumb Code     8  modem.o(.text)
    ModemUart_off                            0x08027b9d   Thumb Code    10  modem.o(.text)
    Modem_off_45                             0x08027ba7   Thumb Code   112  modem.o(.text)
    Modem_restart_4                          0x08027c17   Thumb Code   756  modem.o(.text)
    Modem_top_1                              0x08027f0b   Thumb Code   248  modem.o(.text)
    ClearStateHistory                        0x08028003   Thumb Code    16  modem.o(.text)
    ModemSmsSendServ49                       0x08028013   Thumb Code   272  modem.o(.text)
    ModemSmsRequestToSendServ48              0x08028123   Thumb Code   142  modem.o(.text)
    Modem_initial                            0x080281b1   Thumb Code  1202  modem.o(.text)
    .text                                    0x08028844   Section        0  modem_parser.o(.text)
    OutDebugModemParserSprintf               0x08028845   Thumb Code    72  modem_parser.o(.text)
    Mparser_copy_packet_to_buf               0x0802888d   Thumb Code   166  modem_parser.o(.text)
    OutDebugModemParser                      0x08028933   Thumb Code    62  modem_parser.o(.text)
    Mparser_copy_unread_sms_to_buf           0x08028971   Thumb Code   208  modem_parser.o(.text)
    CalcDigitInString                        0x08028a41   Thumb Code    36  modem_parser.o(.text)
    CalcCharInString                         0x08028a65   Thumb Code    24  modem_parser.o(.text)
    CheckStringIsDigit                       0x08028a7d   Thumb Code    34  modem_parser.o(.text)
    Mparser_search_start_of_message          0x08028a9f   Thumb Code    90  modem_parser.o(.text)
    Mparser_search_LF                        0x08028af9   Thumb Code  1698  modem_parser.o(.text)
    MsgTable_init                            0x0802919b   Thumb Code    74  modem_parser.o(.text)
    Mparser_initial                          0x080291e5   Thumb Code   176  modem_parser.o(.text)
    .text                                    0x080292d8   Section        0  modem_sim900.o(.text)
    ModemSM_idle                             0x080292d9   Thumb Code   130  modem_sim900.o(.text)
    ErrorHandler                             0x0802935b   Thumb Code    34  modem_sim900.o(.text)
    OkHandler                                0x0802937d   Thumb Code   100  modem_sim900.o(.text)
    TickHandler                              0x08029437   Thumb Code   196  modem_sim900.o(.text)
    ModemSM_aon_on                           0x080294fb   Thumb Code   148  modem_sim900.o(.text)
    ModemSM_set_te_character                 0x0802958f   Thumb Code   148  modem_sim900.o(.text)
    ModemSM_check_sim                        0x08029623   Thumb Code   298  modem_sim900.o(.text)
    ModemSM_get_tcp_data                     0x0802974d   Thumb Code   160  modem_sim900.o(.text)
    ModemSM_waiting_tcp_data                 0x080297ed   Thumb Code    76  modem_sim900.o(.text)
    ModemSM_packet_send                      0x08029869   Thumb Code   150  modem_sim900.o(.text)
    ModemSM_packet_request_to_send           0x080298ff   Thumb Code   178  modem_sim900.o(.text)
    ModemSM_get_local_ip_address             0x080299b1   Thumb Code   142  modem_sim900.o(.text)
    ModemSM_bring_up_gprs_con                0x08029a3f   Thumb Code   126  modem_sim900.o(.text)
    ModemSM_start_task                       0x08029abd   Thumb Code   126  modem_sim900.o(.text)
    ModemSM_set_apn                          0x08029b3b   Thumb Code   252  modem_sim900.o(.text)
    ModemSM_set_manual_getdata_mode          0x08029c37   Thumb Code   132  modem_sim900.o(.text)
    ModemSM_add_iphead_mode                  0x08029cbb   Thumb Code   132  modem_sim900.o(.text)
    ModemSM_gprs_attach                      0x08029d3f   Thumb Code   132  modem_sim900.o(.text)
    ModemSM_open_gprs_check_ipstat           0x08029dc3   Thumb Code   242  modem_sim900.o(.text)
    ModemSM_gsm_reg                          0x08029eb5   Thumb Code   474  modem_sim900.o(.text)
    ModemSM_pause                            0x0802a08f   Thumb Code    52  modem_sim900.o(.text)
    ModemSM_power_off                        0x0802a10b   Thumb Code    96  modem_sim900.o(.text)
    ModemSM_sms_set_show_mode_1              0x0802a16b   Thumb Code   156  modem_sim900.o(.text)
    ModemSM_sms_set_ind_mode                 0x0802a207   Thumb Code   156  modem_sim900.o(.text)
    ModemSM_sms_set_text_mode                0x0802a2a3   Thumb Code   156  modem_sim900.o(.text)
    ModemSM_get_imsi                         0x0802a33f   Thumb Code   226  modem_sim900.o(.text)
    ModemSM_waiting_call_ready               0x0802a421   Thumb Code    82  modem_sim900.o(.text)
    ModemSM_get_imei                         0x0802a473   Thumb Code   314  modem_sim900.o(.text)
    ModemSM_sim_det_off                      0x0802a5ad   Thumb Code   154  modem_sim900.o(.text)
    ModemSM_echo_off                         0x0802a647   Thumb Code   142  modem_sim900.o(.text)
    ModemSM_fix_baudrate                     0x0802a6d5   Thumb Code   146  modem_sim900.o(.text)
    ModemSM_check_baudrate                   0x0802a767   Thumb Code   176  modem_sim900.o(.text)
    ModemSM_send_at                          0x0802a817   Thumb Code   146  modem_sim900.o(.text)
    ModemSM_waiting_status_ok                0x0802a8a9   Thumb Code    86  modem_sim900.o(.text)
    ModemSM_power_on_with_power_key          0x0802a8ff   Thumb Code   158  modem_sim900.o(.text)
    ModemRxPin_init                          0x0802a99d   Thumb Code    32  modem_sim900.o(.text)
    ModemTxPin_init                          0x0802a9bd   Thumb Code    32  modem_sim900.o(.text)
    ModemSM_power_on                         0x0802a9dd   Thumb Code   124  modem_sim900.o(.text)
    Modem_hw_init                            0x0802aa59   Thumb Code   308  modem_sim900.o(.text)
    ModemSM_initial                          0x0802ab8d   Thumb Code   726  modem_sim900.o(.text)
    ModemSM_waiting_sms_ready                0x0802ae69   Thumb Code    82  modem_sim900.o(.text)
    ModemSM_set_message_storage              0x0802aebb   Thumb Code   156  modem_sim900.o(.text)
    .text                                    0x0802b070   Section        0  modemringbuf.o(.text)
    ring_buf_pop                             0x0802b097   Thumb Code    32  modemringbuf.o(.text)
    .text                                    0x0802b10c   Section        0  qa_ctor.o(.text)
    .text                                    0x0802b120   Section        0  qa_defer.o(.text)
    .text                                    0x0802b174   Section        0  qa_fifo.o(.text)
    .text                                    0x0802b2f0   Section        0  qa_get_.o(.text)
    .text                                    0x0802b42c   Section        0  qa_lifo.o(.text)
    .text                                    0x0802b514   Section        0  qa_sub.o(.text)
    .text                                    0x0802b5b4   Section        0  qeq_fifo.o(.text)
    .text                                    0x0802b6c0   Section        0  qeq_get.o(.text)
    .text                                    0x0802b798   Section        0  qeq_init.o(.text)
    .text                                    0x0802b7e8   Section        0  qf_act.o(.text)
    .text                                    0x0802b8b4   Section        0  qf_gc.o(.text)
    .text                                    0x0802b960   Section        0  qf_new.o(.text)
    .text                                    0x0802ba08   Section        0  qf_pool.o(.text)
    .text                                    0x0802ba6c   Section        0  qf_psini.o(.text)
    .text                                    0x0802ba78   Section        0  qf_pspub.o(.text)
    .text                                    0x0802bb50   Section        0  qf_tick.o(.text)
    .text                                    0x0802bcb4   Section        0  qmp_get.o(.text)
    .text                                    0x0802bda8   Section        0  qmp_init.o(.text)
    .text                                    0x0802be5c   Section        0  qmp_put.o(.text)
    .text                                    0x0802bed8   Section        0  qte_arm.o(.text)
    .text                                    0x0802bf80   Section        0  qte_ctor.o(.text)
    .text                                    0x0802bfb4   Section        0  qte_darm.o(.text)
    .text                                    0x0802c050   Section        0  qk.o(.text)
    initialize                               0x0802c059   Thumb Code    26  qk.o(.text)
    .text                                    0x0802c0f0   Section        0  qk_sched.o(.text)
    .text                                    0x0802c200   Section        0  qs.o(.text)
    .text                                    0x0802c588   Section        0  qs_.o(.text)
    .text                                    0x0802c7e8   Section        0  qs_byte.o(.text)
    .text                                    0x0802c814   Section        0  qs_dict.o(.text)
    .text                                    0x0802c8dc   Section        0  qs_str.o(.text)
    .text                                    0x0802c990   Section        0  qfsm_dis.o(.text)
    .text                                    0x0802cb98   Section        0  qfsm_ini.o(.text)
    .text                                    0x0802cc68   Section        0  qhsm_dis.o(.text)
    .text                                    0x0802d188   Section        0  qhsm_ini.o(.text)
    .text                                    0x0802d2e0   Section        0  qhsm_top.o(.text)
    .text                                    0x0802d2e4   Section        0  parsersms.o(.text)
    SkipEmptySpaces                          0x0802d441   Thumb Code    30  parsersms.o(.text)
    .text                                    0x0802d538   Section        0  bytestream.o(.text)
    .text                                    0x0802d580   Section        0  memory_spi.o(.text)
    .text                                    0x0802d610   Section        0  at45db.o(.text)
    .text                                    0x0802dc88   Section        0  fm25cl64.o(.text)
    FM25_ReadWriteByte                       0x0802dcb9   Thumb Code    38  fm25cl64.o(.text)
    FM25_WriteEnable                         0x0802dcdf   Thumb Code    48  fm25cl64.o(.text)
    FM25_WriteDisable                        0x0802dd0f   Thumb Code    48  fm25cl64.o(.text)
    .text                                    0x0802e0d8   Section        0  framringbuf.o(.text)
    .text                                    0x0802e608   Section        0  disk.o(.text)
    FdiskFlashErr14                          0x0802e609   Thumb Code    96  disk.o(.text)
    SaveFatToFram                            0x0802e669   Thumb Code    38  disk.o(.text)
    FdiskFramErr13                           0x0802e68f   Thumb Code   106  disk.o(.text)
    GetPointsFromTailToWritePageBuf          0x0802e6f9   Thumb Code    32  disk.o(.text)
    FdiskWrite7                              0x0802e719   Thumb Code   468  disk.o(.text)
    ConfigReadWriteRS485Sensor               0x0802e8ed   Thumb Code   100  disk.o(.text)
    ConfigReadWriteServer                    0x0802e951   Thumb Code   112  disk.o(.text)
    ConfigReadWriteGprs                      0x0802e9c1   Thumb Code   340  disk.o(.text)
    ConfigReadWriteSecur                     0x0802ebc5   Thumb Code   116  disk.o(.text)
    LogReadWriteCounter                      0x0802ec39   Thumb Code    92  disk.o(.text)
    ConfigReadWriteNavFilter                 0x0802ec95   Thumb Code   104  disk.o(.text)
    ConfigReadWriteDout                      0x0802ecfd   Thumb Code   126  disk.o(.text)
    ConfigReadWriteFin                       0x0802ed7b   Thumb Code    98  disk.o(.text)
    ConfigReadWriteHardware                  0x0802eddd   Thumb Code    88  disk.o(.text)
    ConfigReadWritePacketSend                0x0802ee35   Thumb Code    96  disk.o(.text)
    ConfigSave                               0x0802ee95   Thumb Code   328  disk.o(.text)
    FdiskSaveConfig15                        0x0802efdd   Thumb Code    62  disk.o(.text)
    ConfigRead                               0x0802f01b   Thumb Code   200  disk.o(.text)
    FdiskReadConfig5                         0x0802f0e3   Thumb Code    68  disk.o(.text)
    PointsFMPacketMaker                      0x0802f127   Thumb Code   986  disk.o(.text)
    PointsNTPacketMaker                      0x0802f501   Thumb Code   184  disk.o(.text)
    FdiskMakeFreshPack9                      0x0802f5b9   Thumb Code   152  disk.o(.text)
    PageImageCrcOk                           0x0802f651   Thumb Code    26  disk.o(.text)
    FdiskCheck                               0x0802f66b   Thumb Code   344  disk.o(.text)
    PageFMPacketMaker                        0x0802f7c3   Thumb Code  1048  disk.o(.text)
    PageNTPacketMaker                        0x0802fbdb   Thumb Code   160  disk.o(.text)
    FdiskMakeArchPack8                       0x0802fc7b   Thumb Code   234  disk.o(.text)
    FdiskDelPage10                           0x0802fd65   Thumb Code   276  disk.o(.text)
    FdiskDelToSend11                         0x0802fe79   Thumb Code    82  disk.o(.text)
    FdiskUnlToSend12                         0x0802fecb   Thumb Code    82  disk.o(.text)
    FdiskOff16                               0x0802ff1d   Thumb Code    48  disk.o(.text)
    FdiskIdle3                               0x0802ff4d   Thumb Code   172  disk.o(.text)
    LoadFlashDiskImage                       0x0802fff9   Thumb Code    46  disk.o(.text)
    ResetDiskImage                           0x08030027   Thumb Code    26  disk.o(.text)
    FdiskFormatFlash                         0x08030041   Thumb Code   566  disk.o(.text)
    FdiskInit2                               0x08030277   Thumb Code   328  disk.o(.text)
    FdiskTop1                                0x080303bf   Thumb Code   236  disk.o(.text)
    FdiskInitial0                            0x080304ab   Thumb Code   648  disk.o(.text)
    .text                                    0x0803078c   Section        0  io.o(.text)
    IO_RS485_polling                         0x0803078d   Thumb Code   450  io.o(.text)
    IO_idle                                  0x0803094f   Thumb Code    44  io.o(.text)
    PerMinSmooth2                            0x0803097b   Thumb Code   154  io.o(.text)
    InputHandler2                            0x08030a15   Thumb Code   128  io.o(.text)
    PerMinSmooth1                            0x08030a95   Thumb Code   152  io.o(.text)
    InputHandler1                            0x08030b2d   Thumb Code   242  io.o(.text)
    IO_top                                   0x08030c1f   Thumb Code    76  io.o(.text)
    UIN_init                                 0x08030c6b   Thumb Code   150  io.o(.text)
    ADC_init                                 0x08030d01   Thumb Code    24  io.o(.text)
    DINTMR_init                              0x08030d19   Thumb Code    84  io.o(.text)
    IO_process_RS485_command                 0x08030d6d   Thumb Code   122  io.o(.text)
    IO_initial                               0x08030de7   Thumb Code   130  io.o(.text)
    RS485_tx                                 0x08030e69   Thumb Code    24  io.o(.text)
    .text                                    0x080310e4   Section        0  crc8.o(.text)
    .text                                    0x08031104   Section        0  ledindicator.o(.text)
    RS485LedHandler                          0x08031183   Thumb Code    48  ledindicator.o(.text)
    ServerLedHandler                         0x080311b3   Thumb Code   260  ledindicator.o(.text)
    GprsLedHandler                           0x080312b7   Thumb Code   136  ledindicator.o(.text)
    GsmLedHandler                            0x0803133f   Thumb Code   306  ledindicator.o(.text)
    WPointSmsLedHandler                      0x08031471   Thumb Code   488  ledindicator.o(.text)
    NavigationLedHandler                     0x08031659   Thumb Code    54  ledindicator.o(.text)
    .text                                    0x080316e4   Section        0  control_new.o(.text)
    CtrlMemoryErrSuper11                     0x080316e5   Thumb Code   140  control_new.o(.text)
    CtrlSysRebootSuper22                     0x08031771   Thumb Code   138  control_new.o(.text)
    UpdateOn                                 0x080317fb   Thumb Code    38  control_new.o(.text)
    CtrlUpdFinal19                           0x08031821   Thumb Code    66  control_new.o(.text)
    UpdateDefer                              0x08031863   Thumb Code    38  control_new.o(.text)
    MakeFwReqPack                            0x08031889   Thumb Code    20  control_new.o(.text)
    CtrlUpdFwStart17                         0x0803189d   Thumb Code   528  control_new.o(.text)
    CtrlUpdConf15                            0x08031aad   Thumb Code   616  control_new.o(.text)
    CtrlUpdReOpenConnection14                0x08031d15   Thumb Code   260  control_new.o(.text)
    CheckPageErase                           0x08031e19   Thumb Code    24  control_new.o(.text)
    FlashWrite                               0x08031e31   Thumb Code   430  control_new.o(.text)
    CtrlUpdFwContinue18                      0x08031fdf   Thumb Code  1226  control_new.o(.text)
    UpdateOff                                0x080324a9   Thumb Code    36  control_new.o(.text)
    CtrlUpdSupervisor16                      0x080324cd   Thumb Code   182  control_new.o(.text)
    CtrlUpdStart13                           0x08032583   Thumb Code    64  control_new.o(.text)
    CtrlUpdSuper12                           0x080325c3   Thumb Code   138  control_new.o(.text)
    CtrlPackSendFresh10                      0x0803264d   Thumb Code   152  control_new.o(.text)
    CtrlPackSendPage9                        0x080326e5   Thumb Code   158  control_new.o(.text)
    CtrlPackFinal6                           0x08032783   Thumb Code    44  control_new.o(.text)
    CheckConfigUpdTimeout                    0x080327af   Thumb Code    44  control_new.o(.text)
    CtrlPackModemBusy8                       0x080327db   Thumb Code   212  control_new.o(.text)
    DiskIsNotEmpty                           0x080328af   Thumb Code    28  control_new.o(.text)
    CtrlPackIdle7                            0x080328cb   Thumb Code   106  control_new.o(.text)
    SendEnable                               0x08032935   Thumb Code    66  control_new.o(.text)
    CtrlPackSuper3                           0x08032977   Thumb Code   268  control_new.o(.text)
    CtrlWaitDiskReady2                       0x08032a83   Thumb Code   152  control_new.o(.text)
    CtrlInitial1                             0x08032b1b   Thumb Code   462  control_new.o(.text)
    NVIC_SystemReset                         0x08032d07   Thumb Code    20  control_new.o(.text)
    .text                                    0x08032d2c   Section        0  epsilon.o(.text)
    .text                                    0x08032e20   Section        0  nmea_parser.o(.text)
    NmeaParserGetField                       0x08032e21   Thumb Code   110  nmea_parser.o(.text)
    ProcessGLGSV                             0x08032e8f   Thumb Code   428  nmea_parser.o(.text)
    ProcessGPGSV                             0x0803303b   Thumb Code   358  nmea_parser.o(.text)
    ProcessGNGSA                             0x080331a1   Thumb Code   472  nmea_parser.o(.text)
    ProcessGPGSA                             0x08033379   Thumb Code   452  nmea_parser.o(.text)
    ProcessGPGGA                             0x0803353d   Thumb Code   254  nmea_parser.o(.text)
    WriteMagneticVariationEW                 0x0803363b   Thumb Code    80  nmea_parser.o(.text)
    WriteMagneticVariation                   0x0803368b   Thumb Code    84  nmea_parser.o(.text)
    ProcessGNRMC                             0x080336df   Thumb Code   858  nmea_parser.o(.text)
    ProcessGPRMC                             0x08033a39   Thumb Code   706  nmea_parser.o(.text)
    ParseNMEASentence                        0x08033cfb   Thumb Code   354  nmea_parser.o(.text)
    axtoi                                    0x08033e5d   Thumb Code   110  nmea_parser.o(.text)
    NmeaParser                               0x08033ecb   Thumb Code   510  nmea_parser.o(.text)
    Gparser_work                             0x080340c9   Thumb Code   130  nmea_parser.o(.text)
    GpsParser_hwinit                         0x0803414b   Thumb Code   174  nmea_parser.o(.text)
    Gparser_power_on_start                   0x080341f9   Thumb Code    78  nmea_parser.o(.text)
    Gparser_initial                          0x08034247   Thumb Code   110  nmea_parser.o(.text)
    .text                                    0x08034310   Section        0  nav_filter.o(.text)
    SendPointOrEvent                         0x08034397   Thumb Code  1080  nav_filter.o(.text)
    DeltaCource                              0x080347cf   Thumb Code    58  nav_filter.o(.text)
    CalcDistance                             0x08034809   Thumb Code   104  nav_filter.o(.text)
    TimeValid                                0x08034871   Thumb Code    18  nav_filter.o(.text)
    GpsToDec                                 0x08034899   Thumb Code   328  nav_filter.o(.text)
    SaveCurrentPoint                         0x080349e1   Thumb Code    40  nav_filter.o(.text)
    Gfilter_long_stop                        0x08034a09   Thumb Code   764  nav_filter.o(.text)
    Gfilter_short_stop                       0x08034d05   Thumb Code   998  nav_filter.o(.text)
    Gfilter_move                             0x080350eb   Thumb Code   896  nav_filter.o(.text)
    Gfilter_waiting_hdop                     0x0803546b   Thumb Code   584  nav_filter.o(.text)
    Gfilter_off                              0x080356b3   Thumb Code   410  nav_filter.o(.text)
    Gfilter_waiting_fix                      0x0803584d   Thumb Code   144  nav_filter.o(.text)
    Gfilter_initial                          0x080358dd   Thumb Code   138  nav_filter.o(.text)
    .text                                    0x08035ac8   Section        0  gps_ring_buf.o(.text)
    ring_buf_push                            0x08035ae3   Thumb Code    32  gps_ring_buf.o(.text)
    ring_buf_pop                             0x08035b1b   Thumb Code    32  gps_ring_buf.o(.text)
    .text                                    0x08035b68   Section        0  rf10.o(.text)
    .text                                    0x08035ce8   Section        0  tl10.o(.text)
    .text                                    0x08035dc4   Section        0  crc16_teltonika.o(.text)
    .text                                    0x08035df4   Section       16  rt_ctype_table.o(.text)
    .text                                    0x08035e04   Section        0  toupper.o(.text)
    .text                                    0x08035e24   Section        0  __2sprintf.o(.text)
    .text                                    0x08035e50   Section        0  _printf_pad.o(.text)
    .text                                    0x08035e9e   Section        0  _printf_str.o(.text)
    .text                                    0x08035ef0   Section        0  _printf_dec.o(.text)
    .text                                    0x08035f68   Section        0  _printf_hex_int_ll_ptr.o(.text)
    _printf_hex_common                       0x08035f69   Thumb Code     0  _printf_hex_int_ll_ptr.o(.text)
    .text                                    0x08035ffc   Section        0  __printf_flags_ss_wp.o(.text)
    .text                                    0x08036184   Section        0  atoi.o(.text)
    .text                                    0x0803619e   Section        0  strchr.o(.text)
    .text                                    0x080361b2   Section        0  strstr.o(.text)
    .text                                    0x080361d6   Section        0  strlcpy.o(.text)
    .text                                    0x08036264   Section        0  memcmp.o(.text)
    .text                                    0x080362bc   Section        0  strcpy.o(.text)
    .text                                    0x08036304   Section        0  strlen.o(.text)
    .text                                    0x08036342   Section        0  strncmp.o(.text)
    .text                                    0x080363d8   Section        0  strcat.o(.text)
    .text                                    0x080363f0   Section      138  rt_memcpy_v6.o(.text)
    .text                                    0x0803647a   Section      100  rt_memcpy_w.o(.text)
    .text                                    0x080364de   Section       68  rt_memclr.o(.text)
    .text                                    0x08036522   Section       78  rt_memclr_w.o(.text)
    .text                                    0x08036570   Section       86  strncpy.o(.text)
    .text                                    0x080365c8   Section      128  strcmpv7m.o(.text)
    .text                                    0x08036648   Section        0  asctime.o(.text)
    .text                                    0x08036654   Section        0  localtime.o(.text)
    .text                                    0x08036660   Section        0  mktime.o(.text)
    _tm_carry                                0x08036661   Thumb Code    62  mktime.o(.text)
    .text                                    0x08036808   Section        0  heapauxi.o(.text)
    .text                                    0x08036810   Section        8  rt_locale_intlibspace.o(.text)
    .text                                    0x08036818   Section        8  rt_errno_addr_intlibspace.o(.text)
    .text                                    0x08036820   Section        0  _rserrno.o(.text)
    .text                                    0x08036836   Section        0  _printf_intcommon.o(.text)
    .text                                    0x080368e8   Section        0  _printf_fp_dec.o(.text)
    _fp_digits                               0x080368eb   Thumb Code   428  _printf_fp_dec.o(.text)
    .text                                    0x08036d04   Section        0  _printf_char_common.o(.text)
    _printf_input_char                       0x08036d05   Thumb Code    10  _printf_char_common.o(.text)
    .text                                    0x08036d34   Section        0  _sputc.o(.text)
    .text                                    0x08036d3e   Section        0  _printf_char.o(.text)
    .text                                    0x08036d6c   Section        0  strtod.o(.text)
    _local_sscanf                            0x08036d6d   Thumb Code    60  strtod.o(.text)
    .text                                    0x08036e0c   Section        0  strtol.o(.text)
    .text                                    0x08036e7c   Section        0  asctime_internal.o(.text)
    .text                                    0x08036ee4   Section        0  localtime_internal.o(.text)
    .text                                    0x08036f9c   Section        8  libspace.o(.text)
    .text                                    0x08036fa4   Section      138  lludiv10.o(.text)
    .text                                    0x0803702e   Section        0  isspace.o(.text)
    .text                                    0x08037040   Section        0  sprintf.o(.text)
    .text                                    0x0803706c   Section        0  _printf_fp_infnan.o(.text)
    .text                                    0x080370ec   Section        0  _sgetc.o(.text)
    .text                                    0x0803712c   Section        0  _strtoul.o(.text)
    .text                                    0x080371cc   Section        0  bigflt0.o(.text)
    .text                                    0x080372a8   Section       74  sys_stackheap_outer.o(.text)
    .text                                    0x080372f2   Section        0  _printf_truncate.o(.text)
    .text                                    0x08037316   Section        0  _printf_charcount.o(.text)
    .text                                    0x08037340   Section        0  _printf_wctomb.o(.text)
    .text                                    0x080373fc   Section        0  _printf_longlong_dec.o(.text)
    .text                                    0x08037478   Section        0  _printf_oct_int_ll.o(.text)
    _printf_longlong_oct_internal            0x08037479   Thumb Code     0  _printf_oct_int_ll.o(.text)
    .text                                    0x080374e8   Section        0  _chval.o(.text)
    .text                                    0x08037504   Section        0  scanf_fp.o(.text)
    _fp_value                                0x08037505   Thumb Code   508  scanf_fp.o(.text)
    .text                                    0x080379a8   Section        0  exit.o(.text)
    .text                                    0x080379b4   Section        0  _printf_fp_hex.o(.text)
    .text                                    0x08037cb0   Section        0  _printf_wchar.o(.text)
    .text                                    0x08037cdc   Section        0  _wcrtomb.o(.text)
    .text                                    0x08037d1c   Section        0  scanf_hexfp.o(.text)
    .text                                    0x08038034   Section        0  scanf_infnan.o(.text)
    .text                                    0x08038168   Section        0  sys_exit.o(.text)
    .text                                    0x08038174   Section        2  use_no_semi.o(.text)
    .text                                    0x08038176   Section       38  llshl.o(.text)
    .text                                    0x08038176   Section        0  indicate_semi.o(.text)
    CL$$btod_d2e                             0x0803819c   Section       62  btod.o(CL$$btod_d2e)
    CL$$btod_d2e_denorm_low                  0x080381da   Section       70  btod.o(CL$$btod_d2e_denorm_low)
    CL$$btod_d2e_norm_op1                    0x08038220   Section       96  btod.o(CL$$btod_d2e_norm_op1)
    CL$$btod_div_common                      0x08038280   Section      824  btod.o(CL$$btod_div_common)
    CL$$btod_e2d                             0x080385b8   Section       84  btod.o(CL$$btod_e2d)
    CL$$btod_e2e                             0x0803860c   Section      198  btod.o(CL$$btod_e2e)
    CL$$btod_ediv                            0x080386d2   Section       40  btod.o(CL$$btod_ediv)
    CL$$btod_edivd                           0x080386fa   Section       40  btod.o(CL$$btod_edivd)
    CL$$btod_emul                            0x08038722   Section       40  btod.o(CL$$btod_emul)
    CL$$btod_emuld                           0x0803874a   Section       40  btod.o(CL$$btod_emuld)
    CL$$btod_mult_common                     0x08038772   Section      580  btod.o(CL$$btod_mult_common)
    i.__ARM_fpclassify                       0x080389b6   Section        0  fpclassify.o(i.__ARM_fpclassify)
    i.__ieee754_rem_pio2                     0x080389e0   Section        0  rred.o(i.__ieee754_rem_pio2)
    i.__kernel_cos                           0x08038d68   Section        0  cos_i.o(i.__kernel_cos)
    i.__kernel_poly                          0x08038e64   Section        0  poly.o(i.__kernel_poly)
    i.__kernel_sin                           0x08038f10   Section        0  sin_i.o(i.__kernel_sin)
    i.__mathlib_dbl_divzero                  0x08038ffc   Section        0  dunder.o(i.__mathlib_dbl_divzero)
    i.__mathlib_dbl_infnan                   0x0803900c   Section        0  dunder.o(i.__mathlib_dbl_infnan)
    i.__mathlib_dbl_infnan2                  0x08039012   Section        0  dunder.o(i.__mathlib_dbl_infnan2)
    i.__mathlib_dbl_invalid                  0x08039016   Section        0  dunder.o(i.__mathlib_dbl_invalid)
    i.__mathlib_dbl_overflow                 0x08039022   Section        0  dunder.o(i.__mathlib_dbl_overflow)
    i.__mathlib_dbl_underflow                0x08039030   Section        0  dunder.o(i.__mathlib_dbl_underflow)
    i.__mathlib_narrow                       0x08039040   Section        0  narrow.o(i.__mathlib_narrow)
    i.__mathlib_tofloat                      0x08039050   Section        0  narrow.o(i.__mathlib_tofloat)
    i.__support_ldexp                        0x080390d8   Section        0  ldexp.o(i.__support_ldexp)
    i._is_digit                              0x080390ee   Section        0  __printf_wp.o(i._is_digit)
    i.atof                                   0x080390fc   Section        0  atof.o(i.atof)
    i.cos                                    0x08039128   Section        0  cos.o(i.cos)
    i.frexp                                  0x080391c4   Section        0  frexp.o(i.frexp)
    i.ldexp                                  0x0803921c   Section        0  ldexp.o(i.ldexp)
    i.pow                                    0x08039290   Section        0  pow.o(i.pow)
    i.sin                                    0x08039c48   Section        0  sin.o(i.sin)
    i.sqrt                                   0x08039ce8   Section        0  sqrt.o(i.sqrt)
    locale$$code                             0x08039d34   Section       44  lc_ctype_c.o(locale$$code)
    locale$$code                             0x08039d60   Section       44  lc_numeric_c.o(locale$$code)
    locale$$code                             0x08039d8c   Section       44  lc_time_c.o(locale$$code)
    x$fpl$d2f                                0x08039db8   Section       98  d2f.o(x$fpl$d2f)
    x$fpl$dadd                               0x08039e1c   Section      336  daddsub_clz.o(x$fpl$dadd)
    _dadd1                                   0x08039e2d   Thumb Code     0  daddsub_clz.o(x$fpl$dadd)
    x$fpl$dcheck1                            0x08039f6c   Section       16  dcheck1.o(x$fpl$dcheck1)
    x$fpl$dcmpinf                            0x08039f7c   Section       24  dcmpi.o(x$fpl$dcmpinf)
    x$fpl$ddiv                               0x08039f94   Section      688  ddiv.o(x$fpl$ddiv)
    ddiv_entry                               0x08039f9b   Thumb Code     0  ddiv.o(x$fpl$ddiv)
    x$fpl$deqf                               0x0803a244   Section      120  deqf.o(x$fpl$deqf)
    x$fpl$dfix                               0x0803a2bc   Section       94  dfix.o(x$fpl$dfix)
    x$fpl$dfixu                              0x0803a31c   Section       90  dfixu.o(x$fpl$dfixu)
    x$fpl$dflt                               0x0803a376   Section       46  dflt_clz.o(x$fpl$dflt)
    x$fpl$dfltu                              0x0803a3a4   Section       38  dflt_clz.o(x$fpl$dfltu)
    x$fpl$dleqf                              0x0803a3cc   Section      120  dleqf.o(x$fpl$dleqf)
    x$fpl$dmul                               0x0803a444   Section      340  dmul.o(x$fpl$dmul)
    x$fpl$dnaninf                            0x0803a598   Section      156  dnaninf.o(x$fpl$dnaninf)
    x$fpl$dretinf                            0x0803a634   Section       12  dretinf.o(x$fpl$dretinf)
    x$fpl$drleqf                             0x0803a640   Section      108  drleqf.o(x$fpl$drleqf)
    x$fpl$drsb                               0x0803a6ac   Section       22  daddsub_clz.o(x$fpl$drsb)
    x$fpl$dsqrt                              0x0803a6c4   Section      460  dsqrt_noumaal.o(x$fpl$dsqrt)
    x$fpl$dsub                               0x0803a890   Section      468  daddsub_clz.o(x$fpl$dsub)
    _dsub1                                   0x0803a8a1   Thumb Code     0  daddsub_clz.o(x$fpl$dsub)
    x$fpl$f2d                                0x0803aa64   Section       86  f2d.o(x$fpl$f2d)
    x$fpl$fadd                               0x0803aabc   Section      196  faddsub_clz.o(x$fpl$fadd)
    _fadd1                                   0x0803aacb   Thumb Code     0  faddsub_clz.o(x$fpl$fadd)
    x$fpl$fcheck1                            0x0803ab80   Section       12  fcheck1.o(x$fpl$fcheck1)
    x$fpl$fcmpinf                            0x0803ab8c   Section       24  fcmpi.o(x$fpl$fcmpinf)
    x$fpl$ffix                               0x0803aba4   Section       54  ffix.o(x$fpl$ffix)
    x$fpl$ffixu                              0x0803abdc   Section       62  ffixu.o(x$fpl$ffixu)
    x$fpl$ffltu                              0x0803ac1c   Section       38  fflt_clz.o(x$fpl$ffltu)
    x$fpl$fleqf                              0x0803ac44   Section      104  fleqf.o(x$fpl$fleqf)
    x$fpl$fmul                               0x0803acac   Section      258  fmul.o(x$fpl$fmul)
    x$fpl$fnaninf                            0x0803adae   Section      140  fnaninf.o(x$fpl$fnaninf)
    x$fpl$fretinf                            0x0803ae3a   Section       10  fretinf.o(x$fpl$fretinf)
    x$fpl$frsb                               0x0803ae44   Section       20  faddsub_clz.o(x$fpl$frsb)
    x$fpl$fsub                               0x0803ae58   Section      234  faddsub_clz.o(x$fpl$fsub)
    _fsub1                                   0x0803ae67   Thumb Code     0  faddsub_clz.o(x$fpl$fsub)
    x$fpl$printf1                            0x0803af42   Section        4  printf1.o(x$fpl$printf1)
    x$fpl$printf2                            0x0803af46   Section        4  printf2.o(x$fpl$printf2)
    x$fpl$retnan                             0x0803af4a   Section      100  retnan.o(x$fpl$retnan)
    x$fpl$scalbn                             0x0803afae   Section       92  scalbn.o(x$fpl$scalbn)
    x$fpl$scalbnf                            0x0803b00a   Section       76  scalbnf.o(x$fpl$scalbnf)
    x$fpl$scanf1                             0x0803b056   Section        4  scanf1.o(x$fpl$scanf1)
    x$fpl$scanf2                             0x0803b05a   Section        8  scanf2.o(x$fpl$scanf2)
    x$fpl$trapveneer                         0x0803b062   Section       48  trapv.o(x$fpl$trapveneer)
    .constdata                               0x0803b092   Section        2  main.o(.constdata)
    x$fpl$usenofp                            0x0803b092   Section        0  usenofp.o(x$fpl$usenofp)
    .constdata                               0x0803b094   Section       24  main.o(.constdata)
    obj_name_                                0x0803b094   Data          13  main.o(.constdata)
    obj_name_                                0x0803b0a1   Data          11  main.o(.constdata)
    .constdata                               0x0803b0ac   Section       14  bsp.o(.constdata)
    tickEvt                                  0x0803b0ac   Data           4  bsp.o(.constdata)
    Q_this_module_                           0x0803b0b0   Data          10  bsp.o(.constdata)
    .constdata                               0x0803b0ba   Section      212  config.o(.constdata)
    .constdata                               0x0803b18e   Section       74  config.o(.constdata)
    .constdata                               0x0803b1d8   Section        4  config.o(.constdata)
    UpdBreakEvt                              0x0803b1d8   Data           4  config.o(.constdata)
    .constdata                               0x0803b1dc   Section     1024  crc32.o(.constdata)
    .constdata                               0x0803b5dc   Section      512  crc16.o(.constdata)
    .constdata                               0x0803b7dc   Section     1378  modem.o(.constdata)
    ControlModemIsOffEvt                     0x0803b7e0   Data           4  modem.o(.constdata)
    ControlUpdPacketLevelErrorEvt            0x0803b7e4   Data           4  modem.o(.constdata)
    ControlUpdTransportLevelErrorEvt         0x0803b7e8   Data           4  modem.o(.constdata)
    ControlUpdateConnectOkEvt                0x0803b7ec   Data           4  modem.o(.constdata)
    ParserWaitingIpSendEvt                   0x0803b7f0   Data           4  modem.o(.constdata)
    SendPacketOkEvt                          0x0803b7f4   Data           4  modem.o(.constdata)
    SendPacketErrorEvt                       0x0803b7f8   Data           4  modem.o(.constdata)
    ModemReadyEvt                            0x0803b7fc   Data           4  modem.o(.constdata)
    BadPacketEvt                             0x0803b800   Data           4  modem.o(.constdata)
    SmsFinalEvt                              0x0803b804   Data           4  modem.o(.constdata)
    errorSmsProcessedEvt                     0x0803b808   Data           4  modem.o(.constdata)
    obj_name_                                0x0803b80c   Data           7  modem.o(.constdata)
    obj_name_                                0x0803b813   Data           7  modem.o(.constdata)
    fun_name_                                0x0803b81a   Data          10  modem.o(.constdata)
    fun_name_                                0x0803b824   Data          15  modem.o(.constdata)
    fun_name_                                0x0803b833   Data          27  modem.o(.constdata)
    fun_name_                                0x0803b84e   Data          33  modem.o(.constdata)
    fun_name_                                0x0803b86f   Data          40  modem.o(.constdata)
    fun_name_                                0x0803b897   Data          20  modem.o(.constdata)
    fun_name_                                0x0803b8ab   Data          18  modem.o(.constdata)
    fun_name_                                0x0803b8bd   Data          21  modem.o(.constdata)
    fun_name_                                0x0803b8d2   Data          24  modem.o(.constdata)
    fun_name_                                0x0803b8ea   Data          19  modem.o(.constdata)
    fun_name_                                0x0803b8fd   Data          21  modem.o(.constdata)
    fun_name_                                0x0803b912   Data          29  modem.o(.constdata)
    fun_name_                                0x0803b92f   Data          26  modem.o(.constdata)
    fun_name_                                0x0803b949   Data          28  modem.o(.constdata)
    fun_name_                                0x0803b965   Data          29  modem.o(.constdata)
    fun_name_                                0x0803b982   Data          26  modem.o(.constdata)
    fun_name_                                0x0803b99c   Data          27  modem.o(.constdata)
    fun_name_                                0x0803b9b7   Data          32  modem.o(.constdata)
    fun_name_                                0x0803b9d7   Data          24  modem.o(.constdata)
    fun_name_                                0x0803b9ef   Data          30  modem.o(.constdata)
    fun_name_                                0x0803ba0d   Data          20  modem.o(.constdata)
    fun_name_                                0x0803ba21   Data          25  modem.o(.constdata)
    fun_name_                                0x0803ba3a   Data          22  modem.o(.constdata)
    fun_name_                                0x0803ba50   Data          28  modem.o(.constdata)
    fun_name_                                0x0803ba6c   Data          17  modem.o(.constdata)
    fun_name_                                0x0803ba7d   Data          31  modem.o(.constdata)
    fun_name_                                0x0803ba9c   Data          32  modem.o(.constdata)
    fun_name_                                0x0803babc   Data          38  modem.o(.constdata)
    fun_name_                                0x0803bae2   Data          36  modem.o(.constdata)
    fun_name_                                0x0803bb06   Data          34  modem.o(.constdata)
    fun_name_                                0x0803bb28   Data          20  modem.o(.constdata)
    fun_name_                                0x0803bb3c   Data          24  modem.o(.constdata)
    fun_name_                                0x0803bb54   Data          30  modem.o(.constdata)
    fun_name_                                0x0803bb72   Data          32  modem.o(.constdata)
    fun_name_                                0x0803bb92   Data          21  modem.o(.constdata)
    fun_name_                                0x0803bba7   Data          32  modem.o(.constdata)
    fun_name_                                0x0803bbc7   Data          20  modem.o(.constdata)
    fun_name_                                0x0803bbdb   Data          24  modem.o(.constdata)
    fun_name_                                0x0803bbf3   Data          28  modem.o(.constdata)
    fun_name_                                0x0803bc0f   Data          20  modem.o(.constdata)
    fun_name_                                0x0803bc23   Data          20  modem.o(.constdata)
    fun_name_                                0x0803bc37   Data          24  modem.o(.constdata)
    fun_name_                                0x0803bc4f   Data          19  modem.o(.constdata)
    fun_name_                                0x0803bc62   Data          26  modem.o(.constdata)
    fun_name_                                0x0803bc7c   Data          20  modem.o(.constdata)
    fun_name_                                0x0803bc90   Data          14  modem.o(.constdata)
    fun_name_                                0x0803bc9e   Data          33  modem.o(.constdata)
    fun_name_                                0x0803bcbf   Data          28  modem.o(.constdata)
    fun_name_                                0x0803bcdb   Data          29  modem.o(.constdata)
    fun_name_                                0x0803bcf8   Data          20  modem.o(.constdata)
    fun_name_                                0x0803bd0c   Data          21  modem.o(.constdata)
    sig_name_                                0x0803bd21   Data          15  modem.o(.constdata)
    sig_name_                                0x0803bd30   Data          14  modem.o(.constdata)
    .constdata                               0x0803bd40   Section      195  modem_parser.o(.constdata)
    SmsIsDeadEvt                             0x0803bd40   Data           4  modem_parser.o(.constdata)
    NewSmsEvt                                0x0803bd44   Data           4  modem_parser.o(.constdata)
    LocalIpEvt                               0x0803bd48   Data           4  modem_parser.o(.constdata)
    DataReceivedEvt                          0x0803bd4c   Data           4  modem_parser.o(.constdata)
    IpSendEvt                                0x0803bd50   Data           4  modem_parser.o(.constdata)
    obj_name_                                0x0803bd58   Data           6  modem_parser.o(.constdata)
    Q_this_module_                           0x0803bd5e   Data          15  modem_parser.o(.constdata)
    sig_name_                                0x0803bd6d   Data          21  modem_parser.o(.constdata)
    fun_name_                                0x0803bd82   Data          17  modem_parser.o(.constdata)
    fun_name_                                0x0803bd93   Data          19  modem_parser.o(.constdata)
    fun_name_                                0x0803bda6   Data          28  modem_parser.o(.constdata)
    fun_name_                                0x0803bdc2   Data          32  modem_parser.o(.constdata)
    fun_name_                                0x0803bde2   Data          33  modem_parser.o(.constdata)
    .constdata                               0x0803be04   Section     1273  modem_sim900.o(.constdata)
    ParserWaitingIpSendEvt                   0x0803be04   Data           4  modem_sim900.o(.constdata)
    power_on_start_up_stt                    0x0803be08   Data         228  modem_sim900.o(.constdata)
    hard_reset_stt                           0x0803beec   Data          36  modem_sim900.o(.constdata)
    open_gsm_stt                             0x0803bf10   Data          24  modem_sim900.o(.constdata)
    open_gprs_stt                            0x0803bf28   Data         108  modem_sim900.o(.constdata)
    send_packet_stt                          0x0803bf94   Data          60  modem_sim900.o(.constdata)
    get_tcp_data_stt                         0x0803bfd0   Data          24  modem_sim900.o(.constdata)
    fun_name_                                0x0803bfe8   Data          17  modem_sim900.o(.constdata)
    fun_name_                                0x0803bff9   Data          14  modem_sim900.o(.constdata)
    fun_name_                                0x0803c007   Data          18  modem_sim900.o(.constdata)
    fun_name_                                0x0803c019   Data          33  modem_sim900.o(.constdata)
    fun_name_                                0x0803c03a   Data          27  modem_sim900.o(.constdata)
    fun_name_                                0x0803c055   Data          17  modem_sim900.o(.constdata)
    fun_name_                                0x0803c066   Data          24  modem_sim900.o(.constdata)
    fun_name_                                0x0803c07e   Data          22  modem_sim900.o(.constdata)
    fun_name_                                0x0803c094   Data          18  modem_sim900.o(.constdata)
    fun_name_                                0x0803c0a6   Data          21  modem_sim900.o(.constdata)
    fun_name_                                0x0803c0bb   Data          18  modem_sim900.o(.constdata)
    fun_name_                                0x0803c0cd   Data          28  modem_sim900.o(.constdata)
    fun_name_                                0x0803c0e9   Data          18  modem_sim900.o(.constdata)
    fun_name_                                0x0803c0fb   Data          27  modem_sim900.o(.constdata)
    fun_name_                                0x0803c116   Data          26  modem_sim900.o(.constdata)
    fun_name_                                0x0803c130   Data          29  modem_sim900.o(.constdata)
    fun_name_                                0x0803c14d   Data          19  modem_sim900.o(.constdata)
    fun_name_                                0x0803c160   Data          15  modem_sim900.o(.constdata)
    fun_name_                                0x0803c16f   Data          17  modem_sim900.o(.constdata)
    fun_name_                                0x0803c180   Data          32  modem_sim900.o(.constdata)
    fun_name_                                0x0803c1a0   Data          21  modem_sim900.o(.constdata)
    fun_name_                                0x0803c1b5   Data          25  modem_sim900.o(.constdata)
    fun_name_                                0x0803c1ce   Data          33  modem_sim900.o(.constdata)
    fun_name_                                0x0803c1ef   Data          17  modem_sim900.o(.constdata)
    fun_name_                                0x0803c200   Data          20  modem_sim900.o(.constdata)
    fun_name_                                0x0803c214   Data          27  modem_sim900.o(.constdata)
    fun_name_                                0x0803c22f   Data          30  modem_sim900.o(.constdata)
    fun_name_                                0x0803c24d   Data          32  modem_sim900.o(.constdata)
    fun_name_                                0x0803c26d   Data          21  modem_sim900.o(.constdata)
    fun_name_                                0x0803c282   Data          26  modem_sim900.o(.constdata)
    fun_name_                                0x0803c29c   Data          22  modem_sim900.o(.constdata)
    fun_name_                                0x0803c2b2   Data          19  modem_sim900.o(.constdata)
    fun_name_                                0x0803c2c5   Data          26  modem_sim900.o(.constdata)
    fun_name_                                0x0803c2df   Data          16  modem_sim900.o(.constdata)
    sig_name_                                0x0803c2ef   Data          14  modem_sim900.o(.constdata)
    .constdata                               0x0803c300   Section       20  qa_ctor.o(.constdata)
    vtbl                                     0x0803c300   Data          20  qa_ctor.o(.constdata)
    .constdata                               0x0803c314   Section        9  qa_defer.o(.constdata)
    Q_this_module_                           0x0803c314   Data           9  qa_defer.o(.constdata)
    .constdata                               0x0803c31d   Section        8  qa_fifo.o(.constdata)
    Q_this_module_                           0x0803c31d   Data           8  qa_fifo.o(.constdata)
    .constdata                               0x0803c325   Section        8  qa_get_.o(.constdata)
    Q_this_module_                           0x0803c325   Data           8  qa_get_.o(.constdata)
    .constdata                               0x0803c32d   Section        8  qa_lifo.o(.constdata)
    Q_this_module_                           0x0803c32d   Data           8  qa_lifo.o(.constdata)
    .constdata                               0x0803c335   Section        7  qa_sub.o(.constdata)
    Q_this_module_                           0x0803c335   Data           7  qa_sub.o(.constdata)
    .constdata                               0x0803c33c   Section        9  qeq_fifo.o(.constdata)
    Q_this_module_                           0x0803c33c   Data           9  qeq_fifo.o(.constdata)
    .constdata                               0x0803c345   Section        8  qeq_get.o(.constdata)
    Q_this_module_                           0x0803c345   Data           8  qeq_get.o(.constdata)
    .constdata                               0x0803c34d   Section        7  qf_act.o(.constdata)
    Q_this_module_                           0x0803c34d   Data           7  qf_act.o(.constdata)
    .constdata                               0x0803c354   Section        6  qf_gc.o(.constdata)
    Q_this_module_                           0x0803c354   Data           6  qf_gc.o(.constdata)
    .constdata                               0x0803c35a   Section        7  qf_new.o(.constdata)
    Q_this_module_                           0x0803c35a   Data           7  qf_new.o(.constdata)
    .constdata                               0x0803c361   Section        8  qf_pool.o(.constdata)
    Q_this_module_                           0x0803c361   Data           8  qf_pool.o(.constdata)
    .constdata                               0x0803c369   Section        9  qf_pspub.o(.constdata)
    Q_this_module_                           0x0803c369   Data           9  qf_pspub.o(.constdata)
    .constdata                               0x0803c372   Section       65  qf_pwr2.o(.constdata)
    .constdata                               0x0803c3b3   Section       65  qf_pwr2.o(.constdata)
    .constdata                               0x0803c3f4   Section       65  qf_pwr2.o(.constdata)
    .constdata                               0x0803c435   Section        8  qf_tick.o(.constdata)
    Q_this_module_                           0x0803c435   Data           8  qf_tick.o(.constdata)
    .constdata                               0x0803c43d   Section        8  qmp_get.o(.constdata)
    Q_this_module_                           0x0803c43d   Data           8  qmp_get.o(.constdata)
    .constdata                               0x0803c445   Section        9  qmp_init.o(.constdata)
    Q_this_module_                           0x0803c445   Data           9  qmp_init.o(.constdata)
    .constdata                               0x0803c44e   Section        8  qmp_put.o(.constdata)
    Q_this_module_                           0x0803c44e   Data           8  qmp_put.o(.constdata)
    .constdata                               0x0803c456   Section        8  qte_arm.o(.constdata)
    Q_this_module_                           0x0803c456   Data           8  qte_arm.o(.constdata)
    .constdata                               0x0803c45e   Section        9  qte_ctor.o(.constdata)
    Q_this_module_                           0x0803c45e   Data           9  qte_ctor.o(.constdata)
    .constdata                               0x0803c467   Section        3  qk.o(.constdata)
    Q_this_module_                           0x0803c467   Data           3  qk.o(.constdata)
    .constdata                               0x0803c46a   Section        3  qs.o(.constdata)
    Q_this_module_                           0x0803c46a   Data           3  qs.o(.constdata)
    .constdata                               0x0803c46e   Section       16  qep.o(.constdata)
    .constdata                               0x0803c47e   Section        9  qfsm_dis.o(.constdata)
    Q_this_module_                           0x0803c47e   Data           9  qfsm_dis.o(.constdata)
    .constdata                               0x0803c488   Section       17  qfsm_ini.o(.constdata)
    vtbl                                     0x0803c488   Data           8  qfsm_ini.o(.constdata)
    Q_this_module_                           0x0803c490   Data           9  qfsm_ini.o(.constdata)
    .constdata                               0x0803c499   Section        9  qhsm_dis.o(.constdata)
    Q_this_module_                           0x0803c499   Data           9  qhsm_dis.o(.constdata)
    .constdata                               0x0803c4a4   Section       17  qhsm_ini.o(.constdata)
    vtbl                                     0x0803c4a4   Data           8  qhsm_ini.o(.constdata)
    Q_this_module_                           0x0803c4ac   Data           9  qhsm_ini.o(.constdata)
    .constdata                               0x0803c4b5   Section        8  at45db.o(.constdata)
    DF_pagebits                              0x0803c4b5   Data           8  at45db.o(.constdata)
    .constdata                               0x0803c4c0   Section        4  disk.o(.constdata)
    .constdata                               0x0803c4c4   Section        4  disk.o(.constdata)
    .constdata                               0x0803c4c8   Section      286  disk.o(.constdata)
    ControlDiskIsOffEvt                      0x0803c4c8   Data           4  disk.o(.constdata)
    DiskReadyEvt                             0x0803c4cc   Data           4  disk.o(.constdata)
    PrioSendEvt                              0x0803c4d0   Data           4  disk.o(.constdata)
    MakePacketErrorEvt                       0x0803c4d4   Data           4  disk.o(.constdata)
    ControlFramErrorEvt                      0x0803c4d8   Data           4  disk.o(.constdata)
    ControlFlashErrorEvt                     0x0803c4dc   Data           4  disk.o(.constdata)
    obj_name_                                0x0803c4e0   Data           6  disk.o(.constdata)
    fun_name_                                0x0803c4e6   Data          15  disk.o(.constdata)
    fun_name_                                0x0803c4f5   Data          11  disk.o(.constdata)
    fun_name_                                0x0803c500   Data          12  disk.o(.constdata)
    fun_name_                                0x0803c50c   Data          12  disk.o(.constdata)
    fun_name_                                0x0803c518   Data          18  disk.o(.constdata)
    fun_name_                                0x0803c52a   Data          13  disk.o(.constdata)
    fun_name_                                0x0803c537   Data          20  disk.o(.constdata)
    fun_name_                                0x0803c54b   Data          21  disk.o(.constdata)
    fun_name_                                0x0803c560   Data          16  disk.o(.constdata)
    fun_name_                                0x0803c570   Data          18  disk.o(.constdata)
    fun_name_                                0x0803c582   Data          18  disk.o(.constdata)
    fun_name_                                0x0803c594   Data          16  disk.o(.constdata)
    fun_name_                                0x0803c5a4   Data          17  disk.o(.constdata)
    fun_name_                                0x0803c5b5   Data          19  disk.o(.constdata)
    fun_name_                                0x0803c5c8   Data          12  disk.o(.constdata)
    fun_name_                                0x0803c5d4   Data          18  disk.o(.constdata)
    .constdata                               0x0803c5e8   Section       85  io.o(.constdata)
    RxCompleteEvt                            0x0803c5ec   Data           4  io.o(.constdata)
    obj_name_                                0x0803c5f0   Data           4  io.o(.constdata)
    fun_name_                                0x0803c5f4   Data           8  io.o(.constdata)
    fun_name_                                0x0803c5fc   Data          12  io.o(.constdata)
    fun_name_                                0x0803c608   Data           9  io.o(.constdata)
    fun_name_                                0x0803c611   Data          18  io.o(.constdata)
    fun_name_                                0x0803c623   Data          26  io.o(.constdata)
    .constdata                               0x0803c63d   Section      256  crc8.o(.constdata)
    .constdata                               0x0803c740   Section      412  control_new.o(.constdata)
    ModemSmsSendEvt                          0x0803c748   Data           4  control_new.o(.constdata)
    DiskOffEvt                               0x0803c74c   Data           4  control_new.o(.constdata)
    ModemOffEvt                              0x0803c750   Data           4  control_new.o(.constdata)
    ModemUpdStartEvt                         0x0803c754   Data           4  control_new.o(.constdata)
    ModemUpdRestartEvt                       0x0803c758   Data           4  control_new.o(.constdata)
    ModemUpdGetRemainFwDataEvt               0x0803c75c   Data           4  control_new.o(.constdata)
    ModemUpdFinalEvt                         0x0803c760   Data           4  control_new.o(.constdata)
    MakeArchPacketEvt                        0x0803c764   Data           4  control_new.o(.constdata)
    MakeFreshPacketEvt                       0x0803c768   Data           4  control_new.o(.constdata)
    DeletePageEvt                            0x0803c76c   Data           4  control_new.o(.constdata)
    DeletePointsToSendEvt                    0x0803c770   Data           4  control_new.o(.constdata)
    UnlockPointsToSendEvt                    0x0803c774   Data           4  control_new.o(.constdata)
    DiskReadConfigEvt                        0x0803c778   Data           4  control_new.o(.constdata)
    ControlUpdateEndEvt                      0x0803c77c   Data           4  control_new.o(.constdata)
    ControlUpdateStartEvt                    0x0803c780   Data           4  control_new.o(.constdata)
    obj_name_                                0x0803c784   Data           9  control_new.o(.constdata)
    fun_name_                                0x0803c78d   Data          14  control_new.o(.constdata)
    fun_name_                                0x0803c79b   Data          20  control_new.o(.constdata)
    fun_name_                                0x0803c7af   Data          16  control_new.o(.constdata)
    fun_name_                                0x0803c7bf   Data          16  control_new.o(.constdata)
    fun_name_                                0x0803c7cf   Data          15  control_new.o(.constdata)
    fun_name_                                0x0803c7de   Data          20  control_new.o(.constdata)
    fun_name_                                0x0803c7f2   Data          19  control_new.o(.constdata)
    fun_name_                                0x0803c805   Data          21  control_new.o(.constdata)
    fun_name_                                0x0803c81a   Data          22  control_new.o(.constdata)
    fun_name_                                0x0803c830   Data          16  control_new.o(.constdata)
    fun_name_                                0x0803c840   Data          16  control_new.o(.constdata)
    fun_name_                                0x0803c850   Data          27  control_new.o(.constdata)
    fun_name_                                0x0803c86b   Data          15  control_new.o(.constdata)
    fun_name_                                0x0803c87a   Data          21  control_new.o(.constdata)
    fun_name_                                0x0803c88f   Data          18  control_new.o(.constdata)
    fun_name_                                0x0803c8a1   Data          21  control_new.o(.constdata)
    fun_name_                                0x0803c8b6   Data          16  control_new.o(.constdata)
    fun_name_                                0x0803c8c6   Data          22  control_new.o(.constdata)
    .constdata                               0x0803c8dc   Section        4  nmea_parser.o(.constdata)
    .constdata                               0x0803c8e0   Section       64  nmea_parser.o(.constdata)
    obj_name_                                0x0803c8e0   Data           9  nmea_parser.o(.constdata)
    fun_name_                                0x0803c8e9   Data          17  nmea_parser.o(.constdata)
    fun_name_                                0x0803c8fa   Data          14  nmea_parser.o(.constdata)
    fun_name_                                0x0803c908   Data          24  nmea_parser.o(.constdata)
    .constdata                               0x0803c920   Section      129  nav_filter.o(.constdata)
    obj_name_                                0x0803c924   Data          12  nav_filter.o(.constdata)
    fun_name_                                0x0803c930   Data          17  nav_filter.o(.constdata)
    fun_name_                                0x0803c941   Data          21  nav_filter.o(.constdata)
    fun_name_                                0x0803c956   Data          22  nav_filter.o(.constdata)
    fun_name_                                0x0803c96c   Data          14  nav_filter.o(.constdata)
    fun_name_                                0x0803c97a   Data          20  nav_filter.o(.constdata)
    fun_name_                                0x0803c98e   Data          19  nav_filter.o(.constdata)
    .constdata                               0x0803c9a1   Section       40  _printf_hex_int_ll_ptr.o(.constdata)
    uc_hextab                                0x0803c9a1   Data          20  _printf_hex_int_ll_ptr.o(.constdata)
    lc_hextab                                0x0803c9b5   Data          20  _printf_hex_int_ll_ptr.o(.constdata)
    .constdata                               0x0803c9c9   Section       17  __printf_flags_ss_wp.o(.constdata)
    maptable                                 0x0803c9c9   Data          17  __printf_flags_ss_wp.o(.constdata)
    .constdata                               0x0803c9e0   Section      136  pow.o(.constdata)
    bp                                       0x0803c9e0   Data          16  pow.o(.constdata)
    dp_h                                     0x0803c9f0   Data          16  pow.o(.constdata)
    dp_l                                     0x0803ca00   Data          16  pow.o(.constdata)
    L                                        0x0803ca10   Data          48  pow.o(.constdata)
    P                                        0x0803ca40   Data          40  pow.o(.constdata)
    .constdata                               0x0803ca68   Section       12  _monlen.o(.constdata)
    .constdata                               0x0803ca78   Section       48  cos_i.o(.constdata)
    C                                        0x0803ca78   Data          48  cos_i.o(.constdata)
    .constdata                               0x0803caa8   Section        8  qnan.o(.constdata)
    .constdata                               0x0803cab0   Section      200  rred.o(.constdata)
    pio2s                                    0x0803cab0   Data          48  rred.o(.constdata)
    twooverpi                                0x0803cae0   Data         152  rred.o(.constdata)
    .constdata                               0x0803cb78   Section       40  sin_i.o(.constdata)
    S                                        0x0803cb78   Data          40  sin_i.o(.constdata)
    .constdata                               0x0803cba0   Section      148  bigflt0.o(.constdata)
    tenpwrs_x                                0x0803cba0   Data          60  bigflt0.o(.constdata)
    tenpwrs_i                                0x0803cbdc   Data          64  bigflt0.o(.constdata)
    .constdata                               0x0803cc34   Section        8  _printf_wctomb.o(.constdata)
    initial_mbstate                          0x0803cc34   Data           8  _printf_wctomb.o(.constdata)
    .constdata                               0x0803cc3c   Section       38  _printf_fp_hex.o(.constdata)
    lc_hextab                                0x0803cc3c   Data          19  _printf_fp_hex.o(.constdata)
    uc_hextab                                0x0803cc4f   Data          19  _printf_fp_hex.o(.constdata)
    .conststring                             0x0803cc64   Section      576  config.o(.conststring)
    .conststring                             0x0803cea4   Section      737  modem_parser.o(.conststring)
    c$$dinf                                  0x0803d1a8   Section        8  fpconst.o(c$$dinf)
    locale$$data                             0x0803d1b0   Section      272  lc_ctype_c.o(locale$$data)
    __lcctype_c_name                         0x0803d1b4   Data           2  lc_ctype_c.o(locale$$data)
    __lcctype_c_start                        0x0803d1bc   Data           0  lc_ctype_c.o(locale$$data)
    locale$$data                             0x0803d2c0   Section       28  lc_numeric_c.o(locale$$data)
    __lcctype_c_end                          0x0803d2c0   Data           0  lc_ctype_c.o(locale$$data)
    __lcnum_c_name                           0x0803d2c4   Data           2  lc_numeric_c.o(locale$$data)
    __lcnum_c_start                          0x0803d2cc   Data           0  lc_numeric_c.o(locale$$data)
    __lcnum_c_point                          0x0803d2d8   Data           0  lc_numeric_c.o(locale$$data)
    __lcnum_c_thousands                      0x0803d2da   Data           0  lc_numeric_c.o(locale$$data)
    __lcnum_c_grouping                       0x0803d2db   Data           0  lc_numeric_c.o(locale$$data)
    locale$$data                             0x0803d2dc   Section      384  lc_time_c.o(locale$$data)
    __lcnum_c_end                            0x0803d2dc   Data           0  lc_numeric_c.o(locale$$data)
    __lctime_c_name                          0x0803d2e0   Data           2  lc_time_c.o(locale$$data)
    __lctime_c_start                         0x0803d2e8   Data           0  lc_time_c.o(locale$$data)
    __lctime_c_week_short                    0x0803d320   Data           0  lc_time_c.o(locale$$data)
    __lctime_c_week_long                     0x0803d33c   Data           0  lc_time_c.o(locale$$data)
    __lctime_c_month_short                   0x0803d381   Data           0  lc_time_c.o(locale$$data)
    __lctime_c_month_long                    0x0803d3b1   Data           0  lc_time_c.o(locale$$data)
    __lctime_c_am                            0x0803d428   Data           0  lc_time_c.o(locale$$data)
    __lctime_c_pm                            0x0803d42b   Data           0  lc_time_c.o(locale$$data)
    __lctime_c_datetime                      0x0803d42e   Data           0  lc_time_c.o(locale$$data)
    __lctime_c_date                          0x0803d43d   Data           0  lc_time_c.o(locale$$data)
    __lctime_c_time                          0x0803d446   Data           0  lc_time_c.o(locale$$data)
    __lctime_c_12hrtime                      0x0803d44f   Data           0  lc_time_c.o(locale$$data)
    __lctime_c_end                           0x0803d45c   Data           0  lc_time_c.o(locale$$data)
    .data                                    0x20000000   Section        4  main.o(.data)
    .data                                    0x20000004   Section       16  bsp.o(.data)
    tic_counter_100ms                        0x20000004   Data           1  bsp.o(.data)
    counter_10sec                            0x20000005   Data           1  bsp.o(.data)
    l_SysTick_Handler                        0x20000006   Data           1  bsp.o(.data)
    .data                                    0x20000014   Section      708  config.o(.data)
    .data                                    0x200002d8   Section        1  config.o(.data)
    Config_obj                               0x200002d8   Data           1  config.o(.data)
    .data                                    0x200002dc   Section        4  config.o(.data)
    .data                                    0x200002e0   Section        2  crc16.o(.data)
    .data                                    0x200002e2   Section       20  stm32f10x_rcc.o(.data)
    ADCPrescTable                            0x200002e2   Data           4  stm32f10x_rcc.o(.data)
    APBAHBPrescTable                         0x200002e6   Data          16  stm32f10x_rcc.o(.data)
    .data                                    0x200002f6   Section       11  modem.o(.data)
    state                                    0x200002f9   Data           1  modem.o(.data)
    state                                    0x200002fa   Data           1  modem.o(.data)
    state                                    0x200002fb   Data           1  modem.o(.data)
    state                                    0x200002fc   Data           1  modem.o(.data)
    state                                    0x200002fd   Data           1  modem.o(.data)
    debug_sig                                0x200002fe   Data           2  modem.o(.data)
    __tagsym$$used                           0x20000300   Number         0  modem.o(.data)
    .data                                    0x20000304   Section      364  modem_parser.o(.data)
    index                                    0x20000304   Data           1  modem_parser.o(.data)
    .data                                    0x20000470   Section       26  modem_sim900.o(.data)
    answer                                   0x20000470   Data           1  modem_sim900.o(.data)
    reg00_counter                            0x20000471   Data           1  modem_sim900.o(.data)
    reg02_counter                            0x20000472   Data           1  modem_sim900.o(.data)
    reg03_counter                            0x20000473   Data           1  modem_sim900.o(.data)
    reg04_counter                            0x20000474   Data           1  modem_sim900.o(.data)
    i                                        0x20000475   Data           1  modem_sim900.o(.data)
    modem_dma_busy_flag                      0x20000478   Data           4  modem_sim900.o(.data)
    answer_evt                               0x20000484   Data           6  modem_sim900.o(.data)
    .data                                    0x2000048c   Section       16  modemringbuf.o(.data)
    byte                                     0x2000048c   Data           1  modemringbuf.o(.data)
    buf                                      0x20000498   Data           4  modemringbuf.o(.data)
    .data                                    0x2000049c   Section        4  qa_fifo.o(.data)
    .data                                    0x200004a0   Section        4  qf_pool.o(.data)
    .data                                    0x200004a4   Section        8  qf_psini.o(.data)
    .data                                    0x200004ac   Section        1  qk.o(.data)
    .data                                    0x200004ad   Section        1  qk.o(.data)
    .data                                    0x200004ae   Section        1  qk_mutex.o(.data)
    .data                                    0x200004b0   Section        4  parsersms.o(.data)
    next_cmd_ptr                             0x200004b0   Data           4  parsersms.o(.data)
    .data                                    0x200004b4   Section        1  at45db.o(.data)
    PageBits                                 0x200004b4   Data           1  at45db.o(.data)
    .data                                    0x200004b5   Section        1  fm25cl64.o(.data)
    .data                                    0x200004b8   Section        4  framringbuf.o(.data)
    rb_ptr                                   0x200004b8   Data           4  framringbuf.o(.data)
    .data                                    0x200004bc   Section       20  disk.o(.data)
    state                                    0x200004bc   Data           1  disk.o(.data)
    state                                    0x200004bd   Data           1  disk.o(.data)
    state                                    0x200004be   Data           1  disk.o(.data)
    state                                    0x200004bf   Data           1  disk.o(.data)
    sector_counter                           0x200004c0   Data           1  disk.o(.data)
    state                                    0x200004c1   Data           1  disk.o(.data)
    .data                                    0x200004d0   Section       52  io.o(.data)
    uart_mode                                0x200004d0   Data           1  io.o(.data)
    sub_state                                0x200004d1   Data           1  io.o(.data)
    TL10_err_counter                         0x200004d2   Data           1  io.o(.data)
    RS485_IRQHandler                         0x200004d3   Data           1  io.o(.data)
    state                                    0x200004d4   Data           1  io.o(.data)
    i                                        0x200004d5   Data           1  io.o(.data)
    state                                    0x200004d6   Data           1  io.o(.data)
    i                                        0x200004d7   Data           1  io.o(.data)
    deb_counter1                             0x200004d8   Data           1  io.o(.data)
    deb_counter2                             0x200004d9   Data           1  io.o(.data)
    tick_counter                             0x200004da   Data           1  io.o(.data)
    tick_counter                             0x200004db   Data           1  io.o(.data)
    tx_size                                  0x200004dd   Data           1  io.o(.data)
    buf                                      0x200004ec   Data           8  io.o(.data)
    buf                                      0x200004f4   Data           8  io.o(.data)
    .data                                    0x20000504   Section       24  ledindicator.o(.data)
    common_led_state                         0x20000504   Data           1  ledindicator.o(.data)
    gsm_common_led_state                     0x20000505   Data           1  ledindicator.o(.data)
    counter_1000ms                           0x20000506   Data           1  ledindicator.o(.data)
    gsm_led_state                            0x20000507   Data           1  ledindicator.o(.data)
    counter                                  0x20000508   Data           1  ledindicator.o(.data)
    entry_flag                               0x20000509   Data           1  ledindicator.o(.data)
    local_common_led_state                   0x2000050a   Data           1  ledindicator.o(.data)
    gsm_led_on_off                           0x2000050b   Data           1  ledindicator.o(.data)
    counter                                  0x2000050c   Data           1  ledindicator.o(.data)
    entry_flag                               0x2000050d   Data           1  ledindicator.o(.data)
    gprs_led_state                           0x2000050e   Data           1  ledindicator.o(.data)
    counter                                  0x2000050f   Data           1  ledindicator.o(.data)
    lock                                     0x20000510   Data           1  ledindicator.o(.data)
    entry_flag                               0x20000511   Data           1  ledindicator.o(.data)
    server_led_state                         0x20000512   Data           1  ledindicator.o(.data)
    counter                                  0x20000513   Data           1  ledindicator.o(.data)
    entry_flag                               0x20000514   Data           1  ledindicator.o(.data)
    lock_state                               0x20000515   Data           1  ledindicator.o(.data)
    led_state                                0x20000516   Data           1  ledindicator.o(.data)
    led_on_off                               0x20000517   Data           1  ledindicator.o(.data)
    .data                                    0x2000051c   Section        4  control_new.o(.data)
    .data                                    0x20000520   Section       36  control_new.o(.data)
    state                                    0x20000520   Data           1  control_new.o(.data)
    state                                    0x20000521   Data           1  control_new.o(.data)
    state                                    0x20000522   Data           1  control_new.o(.data)
    debug_counter                            0x20000523   Data           1  control_new.o(.data)
    object_counter                           0x20000524   Data           1  control_new.o(.data)
    object_counter                           0x20000525   Data           1  control_new.o(.data)
    state                                    0x20000526   Data           1  control_new.o(.data)
    state                                    0x20000527   Data           1  control_new.o(.data)
    debug_counter                            0x20000528   Data           1  control_new.o(.data)
    tick_counter                             0x20000529   Data           1  control_new.o(.data)
    restart_counter                          0x2000052a   Data           2  control_new.o(.data)
    restart_counter                          0x2000052c   Data           2  control_new.o(.data)
    restart                                  0x20000530   Data           4  control_new.o(.data)
    write_addr                               0x20000534   Data           4  control_new.o(.data)
    word_counter                             0x20000538   Data           4  control_new.o(.data)
    page_counter                             0x2000053c   Data           4  control_new.o(.data)
    byte_counter                             0x20000540   Data           4  control_new.o(.data)
    .data                                    0x20000544   Section       16  epsilon.o(.data)
    .data                                    0x20000554   Section        1  epsilon.o(.data)
    err_counter                              0x20000554   Data           1  epsilon.o(.data)
    .data                                    0x20000558   Section       40  nmea_parser.o(.data)
    reset_counter                            0x20000558   Data           1  nmea_parser.o(.data)
    state                                    0x20000559   Data           1  nmea_parser.o(.data)
    TotalNumOfMsg                            0x2000055a   Data           1  nmea_parser.o(.data)
    MsgNum                                   0x2000055b   Data           1  nmea_parser.o(.data)
    Checksum                                 0x2000055e   Data           3  nmea_parser.o(.data)
    CalcChecksum                             0x20000564   Data           4  nmea_parser.o(.data)
    SequenceIndex                            0x20000568   Data           4  nmea_parser.o(.data)
    AddressFieldIndex                        0x2000056c   Data           4  nmea_parser.o(.data)
    motion_det_flag                          0x20000570   Data           4  nmea_parser.o(.data)
    AddressField                             0x20000578   Data           8  nmea_parser.o(.data)
    .data                                    0x20000580   Section       32  nav_filter.o(.data)
    dhdop_new                                0x20000584   Data           4  nav_filter.o(.data)
    dhdop2                                   0x20000588   Data           4  nav_filter.o(.data)
    dhdop3                                   0x2000058c   Data           4  nav_filter.o(.data)
    hdop                                     0x20000598   Data           8  nav_filter.o(.data)
    .data                                    0x200005a0   Section       16  gps_ring_buf.o(.data)
    byte                                     0x200005a0   Data           1  gps_ring_buf.o(.data)
    count                                    0x200005a2   Data           2  gps_ring_buf.o(.data)
    size                                     0x200005a4   Data           2  gps_ring_buf.o(.data)
    tail                                     0x200005a6   Data           2  gps_ring_buf.o(.data)
    head                                     0x200005a8   Data           2  gps_ring_buf.o(.data)
    buf                                      0x200005ac   Data           4  gps_ring_buf.o(.data)
    .data                                    0x200005b0   Section       24  rf10.o(.data)
    .data                                    0x200005c8   Section        8  tl10.o(.data)
    .data                                    0x200005d0   Section        1  tl10.o(.data)
    err_counter                              0x200005d0   Data           1  tl10.o(.data)
    .bss                                     0x200005d4   Section      793  main.o(.bss)
    DiskQueueSto                             0x200005d4   Data          60  main.o(.bss)
    ControlQueueSto                          0x20000610   Data          40  main.o(.bss)
    NavReceiverQueueSto                      0x20000638   Data          40  main.o(.bss)
    ModemQueueSto                            0x20000660   Data          40  main.o(.bss)
    IoQueueSto                               0x200006b0   Data          40  main.o(.bss)
    GpsFilterQueueSto                        0x200006d8   Data          40  main.o(.bss)
    SmallPoolSto                             0x20000700   Data          80  main.o(.bss)
    MiddlePoolSto                            0x20000750   Data         320  main.o(.bss)
    SubscrListSto                            0x20000890   Data          20  main.o(.bss)
    .bss                                     0x200008ed   Section     2048  bsp.o(.bss)
    qsBuf                                    0x200008ed   Data        2048  bsp.o(.bss)
    .bss                                     0x200010ed   Section      413  config.o(.bss)
    .bss                                     0x2000128c   Section      656  modem.o(.bss)
    auth_pack_buf                            0x2000128c   Data          60  modem.o(.bss)
    modem                                    0x20001374   Data         392  modem.o(.bss)
    .bss                                     0x2000151c   Section     4212  modem_parser.o(.bss)
    tf_buf                                   0x2000151c   Data          18  modem_parser.o(.bss)
    packet_rx_buf                            0x2000152e   Data        1500  modem_parser.o(.bss)
    message_buf                              0x200022da   Data         400  modem_parser.o(.bss)
    static_buf                               0x2000246a   Data          50  modem_parser.o(.bss)
    .bss                                     0x20002590   Section      100  modem_sim900.o(.bss)
    modem_command_tx_buf                     0x20002590   Data         100  modem_sim900.o(.bss)
    .bss                                     0x200025f4   Section      132  qf_act.o(.bss)
    .bss                                     0x20002678   Section       60  qf_pool.o(.bss)
    .bss                                     0x200026b4   Section       32  qf_tick.o(.bss)
    .bss                                     0x200026d4   Section        9  qk.o(.bss)
    .bss                                     0x200026e0   Section       64  qs.o(.bss)
    .bss                                     0x20002720   Section       50  parsersms.o(.bss)
    string_data_buf                          0x20002720   Data          50  parsersms.o(.bss)
    .bss                                     0x20002752   Section     3091  framringbuf.o(.bss)
    control_buf                              0x20002752   Data        3091  framringbuf.o(.bss)
    .bss                                     0x20003368   Section     5715  disk.o(.bss)
    disk                                     0x20003368   Data         132  disk.o(.bss)
    points_to_send_buf                       0x200043f1   Data         900  disk.o(.bss)
    page_image                               0x20004775   Data         528  disk.o(.bss)
    .bss                                     0x200049bc   Section      288  io.o(.bss)
    io                                       0x200049e8   Data         116  io.o(.bss)
    hpar                                     0x20004a5c   Data          28  io.o(.bss)
    rs485_tx_buf                             0x20004a78   Data          50  io.o(.bss)
    .bss                                     0x20004adc   Section     1573  control_new.o(.bss)
    boot_rec                                 0x20004adc   Data          40  control_new.o(.bss)
    control                                  0x20004b04   Data          92  control_new.o(.bss)
    fwu_buf                                  0x20004b60   Data        1441  control_new.o(.bss)
    .bss                                     0x20005108   Section      897  nmea_parser.o(.bss)
    NMEASequence                             0x20005108   Data         100  nmea_parser.o(.bss)
    GpsSatInfo                               0x200051e0   Data          60  nmea_parser.o(.bss)
    GlonassSatInfo                           0x2000521c   Data          60  nmea_parser.o(.bss)
    gparser                                  0x2000544c   Data          36  nmea_parser.o(.bss)
    .bss                                     0x20005490   Section      787  nav_filter.o(.bss)
    point                                    0x20005490   Data         320  nav_filter.o(.bss)
    nav_filter                               0x200055d0   Data          68  nav_filter.o(.bss)
    points_pool                              0x20005614   Data         345  nav_filter.o(.bss)
    .bss                                     0x200057a3   Section       68  asctime.o(.bss)
    _timebuf                                 0x200057a3   Data          68  asctime.o(.bss)
    .bss                                     0x200057e8   Section       44  localtime.o(.bss)
    _tms                                     0x200057e8   Data          44  localtime.o(.bss)
    .bss                                     0x20005814   Section       96  libspace.o(.bss)
    HEAP                                     0x20005878   Section        0  startup_stm32f10x_hd.o(HEAP)
    STACK                                    0x20005878   Section     1536  startup_stm32f10x_hd.o(STACK)
    Heap_Mem                                 0x20005878   Data           0  startup_stm32f10x_hd.o(HEAP)
    Stack_Mem                                0x20005878   Data        1536  startup_stm32f10x_hd.o(STACK)
    __initial_sp                             0x20005e78   Data           0  startup_stm32f10x_hd.o(STACK)

    Global Symbols

    Symbol Name                              Value     Ov Type        Size  Object(Section)

    BuildAttributes$$THM_ISAv4$P$D$K$B$S$PE$A:L22UL41UL21$X:L11$S22US41US21$IEEE1$IW$USESV6$~STKCKD$USESV7$~SHL$OTIME$ROPI$IEEEX$EBA8$UX$STANDARDLIB$REQ8$PRES8$EABIv2 0x00000000   Number         0  anon$$obj.o ABSOLUTE
    __ARM_use_no_argv                        0x00000000   Number         0  main.o ABSOLUTE
    _printf_flags                            0x00000000   Number         0  printf_stubs.o ABSOLUTE
    _printf_return_value                     0x00000000   Number         0  printf_stubs.o ABSOLUTE
    _printf_sizespec                         0x00000000   Number         0  printf_stubs.o ABSOLUTE
    _printf_widthprec                        0x00000000   Number         0  printf_stubs.o ABSOLUTE
    __ARM_exceptions_init                     - Undefined Weak Reference
    __alloca_initialize                       - Undefined Weak Reference
    __arm_preinit_                            - Undefined Weak Reference
    __cpp_initialize__aeabi_                  - Undefined Weak Reference
    __cxa_finalize                            - Undefined Weak Reference
    __sigvec_lookup                           - Undefined Weak Reference
    _atexit_init                              - Undefined Weak Reference
    _call_atexit_fns                          - Undefined Weak Reference
    _clock_init                               - Undefined Weak Reference
    _fp_trap_init                             - Undefined Weak Reference
    _fp_trap_shutdown                         - Undefined Weak Reference
    _get_lc_collate                           - Undefined Weak Reference
    _get_lc_monetary                          - Undefined Weak Reference
    _getenv_init                              - Undefined Weak Reference
    _handle_redirection                       - Undefined Weak Reference
    _init_alloc                               - Undefined Weak Reference
    _init_user_alloc                          - Undefined Weak Reference
    _initio                                   - Undefined Weak Reference
    _printf_mbtowc                            - Undefined Weak Reference
    _printf_wc                                - Undefined Weak Reference
    _rand_init                                - Undefined Weak Reference
    _signal_finish                            - Undefined Weak Reference
    _signal_init                              - Undefined Weak Reference
    _terminate_alloc                          - Undefined Weak Reference
    _terminate_user_alloc                     - Undefined Weak Reference
    _terminateio                              - Undefined Weak Reference
    __Vectors_Size                           0x00000130   Number         0  startup_stm32f10x_hd.o ABSOLUTE
    __Vectors                                0x08021000   Data           4  startup_stm32f10x_hd.o(RESET)
    __Vectors_End                            0x08021130   Data           0  startup_stm32f10x_hd.o(RESET)
    __main                                   0x08021131   Thumb Code     8  __main.o(!!!main)
    __scatterload                            0x08021139   Thumb Code     0  __scatter.o(!!!scatter)
    __scatterload_rt2                        0x08021139   Thumb Code    44  __scatter.o(!!!scatter)
    __scatterload_rt2_thumb_only             0x08021139   Thumb Code     0  __scatter.o(!!!scatter)
    __scatterload_null                       0x08021147   Thumb Code     0  __scatter.o(!!!scatter)
    __decompress                             0x0802116d   Thumb Code    90  __dczerorl2.o(!!dczerorl2)
    __decompress1                            0x0802116d   Thumb Code     0  __dczerorl2.o(!!dczerorl2)
    __scatterload_zeroinit                   0x080211c9   Thumb Code    28  __scatter_zi.o(!!handler_zi)
    _printf_n                                0x080211e5   Thumb Code     0  _printf_n.o(.ARM.Collect$$_printf_percent$$00000001)
    _printf_percent                          0x080211e5   Thumb Code     0  _printf_percent.o(.ARM.Collect$$_printf_percent$$00000000)
    _printf_p                                0x080211eb   Thumb Code     0  _printf_p.o(.ARM.Collect$$_printf_percent$$00000002)
    _printf_f                                0x080211f1   Thumb Code     0  _printf_f.o(.ARM.Collect$$_printf_percent$$00000003)
    _printf_e                                0x080211f7   Thumb Code     0  _printf_e.o(.ARM.Collect$$_printf_percent$$00000004)
    _printf_g                                0x080211fd   Thumb Code     0  _printf_g.o(.ARM.Collect$$_printf_percent$$00000005)
    _printf_a                                0x08021203   Thumb Code     0  _printf_a.o(.ARM.Collect$$_printf_percent$$00000006)
    _printf_ll                               0x08021209   Thumb Code     0  _printf_ll.o(.ARM.Collect$$_printf_percent$$00000007)
    _printf_i                                0x08021213   Thumb Code     0  _printf_i.o(.ARM.Collect$$_printf_percent$$00000008)
    _printf_d                                0x08021219   Thumb Code     0  _printf_d.o(.ARM.Collect$$_printf_percent$$00000009)
    _printf_u                                0x0802121f   Thumb Code     0  _printf_u.o(.ARM.Collect$$_printf_percent$$0000000A)
    _printf_o                                0x08021225   Thumb Code     0  _printf_o.o(.ARM.Collect$$_printf_percent$$0000000B)
    _printf_x                                0x0802122b   Thumb Code     0  _printf_x.o(.ARM.Collect$$_printf_percent$$0000000C)
    _printf_lli                              0x08021231   Thumb Code     0  _printf_lli.o(.ARM.Collect$$_printf_percent$$0000000D)
    _printf_lld                              0x08021237   Thumb Code     0  _printf_lld.o(.ARM.Collect$$_printf_percent$$0000000E)
    _printf_llu                              0x0802123d   Thumb Code     0  _printf_llu.o(.ARM.Collect$$_printf_percent$$0000000F)
    _printf_llo                              0x08021243   Thumb Code     0  _printf_llo.o(.ARM.Collect$$_printf_percent$$00000010)
    _printf_llx                              0x08021249   Thumb Code     0  _printf_llx.o(.ARM.Collect$$_printf_percent$$00000011)
    _printf_l                                0x0802124f   Thumb Code     0  _printf_l.o(.ARM.Collect$$_printf_percent$$00000012)
    _printf_c                                0x08021259   Thumb Code     0  _printf_c.o(.ARM.Collect$$_printf_percent$$00000013)
    _printf_s                                0x0802125f   Thumb Code     0  _printf_s.o(.ARM.Collect$$_printf_percent$$00000014)
    _printf_lc                               0x08021265   Thumb Code     0  _printf_lc.o(.ARM.Collect$$_printf_percent$$00000015)
    _printf_ls                               0x0802126b   Thumb Code     0  _printf_ls.o(.ARM.Collect$$_printf_percent$$00000016)
    _printf_percent_end                      0x08021271   Thumb Code     0  _printf_percent_end.o(.ARM.Collect$$_printf_percent$$00000017)
    __rt_lib_init                            0x08021275   Thumb Code     0  libinit.o(.ARM.Collect$$libinit$$00000000)
    __rt_lib_init_fp_1                       0x08021277   Thumb Code     0  libinit2.o(.ARM.Collect$$libinit$$00000002)
    __rt_lib_init_heap_1                     0x08021277   Thumb Code     0  libinit2.o(.ARM.Collect$$libinit$$0000000A)
    __rt_lib_init_lc_common                  0x08021277   Thumb Code     0  libinit2.o(.ARM.Collect$$libinit$$0000000F)
    __rt_lib_init_preinit_1                  0x08021277   Thumb Code     0  libinit2.o(.ARM.Collect$$libinit$$00000004)
    __rt_lib_init_rand_1                     0x08021277   Thumb Code     0  libinit2.o(.ARM.Collect$$libinit$$0000000E)
    __rt_lib_init_user_alloc_1               0x08021277   Thumb Code     0  libinit2.o(.ARM.Collect$$libinit$$0000000C)
    __rt_lib_init_lc_collate_1               0x0802127d   Thumb Code     0  libinit2.o(.ARM.Collect$$libinit$$00000011)
    __rt_lib_init_lc_ctype_2                 0x0802127d   Thumb Code     0  libinit2.o(.ARM.Collect$$libinit$$00000012)
    __rt_lib_init_lc_ctype_1                 0x08021289   Thumb Code     0  libinit2.o(.ARM.Collect$$libinit$$00000013)
    __rt_lib_init_lc_monetary_1              0x08021289   Thumb Code     0  libinit2.o(.ARM.Collect$$libinit$$00000015)
    __rt_lib_init_lc_numeric_2               0x08021289   Thumb Code     0  libinit2.o(.ARM.Collect$$libinit$$00000016)
    __rt_lib_init_lc_numeric_1               0x08021293   Thumb Code     0  libinit2.o(.ARM.Collect$$libinit$$00000017)
    __rt_lib_init_lc_time_2                  0x08021293   Thumb Code     0  libinit2.o(.ARM.Collect$$libinit$$00000018)
    __rt_lib_init_alloca_1                   0x0802129d   Thumb Code     0  libinit2.o(.ARM.Collect$$libinit$$0000002E)
    __rt_lib_init_argv_1                     0x0802129d   Thumb Code     0  libinit2.o(.ARM.Collect$$libinit$$0000002C)
    __rt_lib_init_atexit_1                   0x0802129d   Thumb Code     0  libinit2.o(.ARM.Collect$$libinit$$0000001B)
    __rt_lib_init_clock_1                    0x0802129d   Thumb Code     0  libinit2.o(.ARM.Collect$$libinit$$00000021)
    __rt_lib_init_cpp_1                      0x0802129d   Thumb Code     0  libinit2.o(.ARM.Collect$$libinit$$00000032)
    __rt_lib_init_exceptions_1               0x0802129d   Thumb Code     0  libinit2.o(.ARM.Collect$$libinit$$00000030)
    __rt_lib_init_fp_trap_1                  0x0802129d   Thumb Code     0  libinit2.o(.ARM.Collect$$libinit$$0000001F)
    __rt_lib_init_getenv_1                   0x0802129d   Thumb Code     0  libinit2.o(.ARM.Collect$$libinit$$00000023)
    __rt_lib_init_lc_time_1                  0x0802129d   Thumb Code     0  libinit2.o(.ARM.Collect$$libinit$$00000019)
    __rt_lib_init_return                     0x0802129d   Thumb Code     0  libinit2.o(.ARM.Collect$$libinit$$00000033)
    __rt_lib_init_signal_1                   0x0802129d   Thumb Code     0  libinit2.o(.ARM.Collect$$libinit$$0000001D)
    __rt_lib_init_stdio_1                    0x0802129d   Thumb Code     0  libinit2.o(.ARM.Collect$$libinit$$00000025)
    __rt_lib_shutdown                        0x0802129f   Thumb Code     0  libshutdown.o(.ARM.Collect$$libshutdown$$00000000)
    __rt_lib_shutdown_fp_trap_1              0x080212a1   Thumb Code     0  libshutdown2.o(.ARM.Collect$$libshutdown$$00000006)
    __rt_lib_shutdown_heap_1                 0x080212a1   Thumb Code     0  libshutdown2.o(.ARM.Collect$$libshutdown$$0000000E)
    __rt_lib_shutdown_return                 0x080212a1   Thumb Code     0  libshutdown2.o(.ARM.Collect$$libshutdown$$0000000F)
    __rt_lib_shutdown_signal_1               0x080212a1   Thumb Code     0  libshutdown2.o(.ARM.Collect$$libshutdown$$00000009)
    __rt_lib_shutdown_stdio_1                0x080212a1   Thumb Code     0  libshutdown2.o(.ARM.Collect$$libshutdown$$00000003)
    __rt_lib_shutdown_user_alloc_1           0x080212a1   Thumb Code     0  libshutdown2.o(.ARM.Collect$$libshutdown$$0000000B)
    __rt_entry                               0x080212a3   Thumb Code     0  __rtentry.o(.ARM.Collect$$rtentry$$00000000)
    __rt_entry_presh_1                       0x080212a3   Thumb Code     0  __rtentry2.o(.ARM.Collect$$rtentry$$00000002)
    __rt_entry_sh                            0x080212a3   Thumb Code     0  __rtentry4.o(.ARM.Collect$$rtentry$$00000004)
    __rt_entry_li                            0x080212a9   Thumb Code     0  __rtentry2.o(.ARM.Collect$$rtentry$$0000000A)
    __rt_entry_postsh_1                      0x080212a9   Thumb Code     0  __rtentry2.o(.ARM.Collect$$rtentry$$00000009)
    __rt_entry_main                          0x080212ad   Thumb Code     0  __rtentry2.o(.ARM.Collect$$rtentry$$0000000D)
    __rt_entry_postli_1                      0x080212ad   Thumb Code     0  __rtentry2.o(.ARM.Collect$$rtentry$$0000000C)
    __rt_exit                                0x080212b5   Thumb Code     0  rtexit.o(.ARM.Collect$$rtexit$$00000000)
    __rt_exit_ls                             0x080212b7   Thumb Code     0  rtexit2.o(.ARM.Collect$$rtexit$$00000003)
    __rt_exit_prels_1                        0x080212b7   Thumb Code     0  rtexit2.o(.ARM.Collect$$rtexit$$00000002)
    __rt_exit_exit                           0x080212bb   Thumb Code     0  rtexit2.o(.ARM.Collect$$rtexit$$00000004)
    SystemInit_ExtMemCtl                     0x080212c1   Thumb Code     2  startup_stm32f10x_hd.o(.text)
    Reset_Handler                            0x080212c3   Thumb Code    14  startup_stm32f10x_hd.o(.text)
    NMI_Handler                              0x080212d1   Thumb Code     2  startup_stm32f10x_hd.o(.text)
    DebugMon_Handler                         0x080212dd   Thumb Code     2  startup_stm32f10x_hd.o(.text)
    ADC1_2_IRQHandler                        0x080212e3   Thumb Code     0  startup_stm32f10x_hd.o(.text)
    ADC3_IRQHandler                          0x080212e3   Thumb Code     0  startup_stm32f10x_hd.o(.text)
    CAN1_RX1_IRQHandler                      0x080212e3   Thumb Code     0  startup_stm32f10x_hd.o(.text)
    CAN1_SCE_IRQHandler                      0x080212e3   Thumb Code     0  startup_stm32f10x_hd.o(.text)
    DMA1_Channel1_IRQHandler                 0x080212e3   Thumb Code     0  startup_stm32f10x_hd.o(.text)
    DMA1_Channel2_IRQHandler                 0x080212e3   Thumb Code     0  startup_stm32f10x_hd.o(.text)
    DMA1_Channel3_IRQHandler                 0x080212e3   Thumb Code     0  startup_stm32f10x_hd.o(.text)
    DMA1_Channel5_IRQHandler                 0x080212e3   Thumb Code     0  startup_stm32f10x_hd.o(.text)
    DMA1_Channel6_IRQHandler                 0x080212e3   Thumb Code     0  startup_stm32f10x_hd.o(.text)
    DMA1_Channel7_IRQHandler                 0x080212e3   Thumb Code     0  startup_stm32f10x_hd.o(.text)
    DMA2_Channel1_IRQHandler                 0x080212e3   Thumb Code     0  startup_stm32f10x_hd.o(.text)
    DMA2_Channel2_IRQHandler                 0x080212e3   Thumb Code     0  startup_stm32f10x_hd.o(.text)
    DMA2_Channel3_IRQHandler                 0x080212e3   Thumb Code     0  startup_stm32f10x_hd.o(.text)
    DMA2_Channel4_5_IRQHandler               0x080212e3   Thumb Code     0  startup_stm32f10x_hd.o(.text)
    EXTI0_IRQHandler                         0x080212e3   Thumb Code     0  startup_stm32f10x_hd.o(.text)
    EXTI15_10_IRQHandler                     0x080212e3   Thumb Code     0  startup_stm32f10x_hd.o(.text)
    EXTI1_IRQHandler                         0x080212e3   Thumb Code     0  startup_stm32f10x_hd.o(.text)
    EXTI2_IRQHandler                         0x080212e3   Thumb Code     0  startup_stm32f10x_hd.o(.text)
    EXTI3_IRQHandler                         0x080212e3   Thumb Code     0  startup_stm32f10x_hd.o(.text)
    EXTI4_IRQHandler                         0x080212e3   Thumb Code     0  startup_stm32f10x_hd.o(.text)
    FLASH_IRQHandler                         0x080212e3   Thumb Code     0  startup_stm32f10x_hd.o(.text)
    FSMC_IRQHandler                          0x080212e3   Thumb Code     0  startup_stm32f10x_hd.o(.text)
    I2C1_ER_IRQHandler                       0x080212e3   Thumb Code     0  startup_stm32f10x_hd.o(.text)
    I2C1_EV_IRQHandler                       0x080212e3   Thumb Code     0  startup_stm32f10x_hd.o(.text)
    I2C2_ER_IRQHandler                       0x080212e3   Thumb Code     0  startup_stm32f10x_hd.o(.text)
    I2C2_EV_IRQHandler                       0x080212e3   Thumb Code     0  startup_stm32f10x_hd.o(.text)
    PVD_IRQHandler                           0x080212e3   Thumb Code     0  startup_stm32f10x_hd.o(.text)
    RCC_IRQHandler                           0x080212e3   Thumb Code     0  startup_stm32f10x_hd.o(.text)
    RTCAlarm_IRQHandler                      0x080212e3   Thumb Code     0  startup_stm32f10x_hd.o(.text)
    RTC_IRQHandler                           0x080212e3   Thumb Code     0  startup_stm32f10x_hd.o(.text)
    SDIO_IRQHandler                          0x080212e3   Thumb Code     0  startup_stm32f10x_hd.o(.text)
    SPI1_IRQHandler                          0x080212e3   Thumb Code     0  startup_stm32f10x_hd.o(.text)
    SPI2_IRQHandler                          0x080212e3   Thumb Code     0  startup_stm32f10x_hd.o(.text)
    SPI3_IRQHandler                          0x080212e3   Thumb Code     0  startup_stm32f10x_hd.o(.text)
    TAMPER_IRQHandler                        0x080212e3   Thumb Code     0  startup_stm32f10x_hd.o(.text)
    TIM1_BRK_IRQHandler                      0x080212e3   Thumb Code     0  startup_stm32f10x_hd.o(.text)
    TIM1_CC_IRQHandler                       0x080212e3   Thumb Code     0  startup_stm32f10x_hd.o(.text)
    TIM1_TRG_COM_IRQHandler                  0x080212e3   Thumb Code     0  startup_stm32f10x_hd.o(.text)
    TIM2_IRQHandler                          0x080212e3   Thumb Code     0  startup_stm32f10x_hd.o(.text)
    TIM3_IRQHandler                          0x080212e3   Thumb Code     0  startup_stm32f10x_hd.o(.text)
    TIM4_IRQHandler                          0x080212e3   Thumb Code     0  startup_stm32f10x_hd.o(.text)
    TIM5_IRQHandler                          0x080212e3   Thumb Code     0  startup_stm32f10x_hd.o(.text)
    TIM6_IRQHandler                          0x080212e3   Thumb Code     0  startup_stm32f10x_hd.o(.text)
    TIM8_BRK_IRQHandler                      0x080212e3   Thumb Code     0  startup_stm32f10x_hd.o(.text)
    TIM8_CC_IRQHandler                       0x080212e3   Thumb Code     0  startup_stm32f10x_hd.o(.text)
    TIM8_TRG_COM_IRQHandler                  0x080212e3   Thumb Code     0  startup_stm32f10x_hd.o(.text)
    TIM8_UP_IRQHandler                       0x080212e3   Thumb Code     0  startup_stm32f10x_hd.o(.text)
    USART2_IRQHandler                        0x080212e3   Thumb Code     0  startup_stm32f10x_hd.o(.text)
    USART3_IRQHandler                        0x080212e3   Thumb Code     0  startup_stm32f10x_hd.o(.text)
    USBWakeUp_IRQHandler                     0x080212e3   Thumb Code     0  startup_stm32f10x_hd.o(.text)
    USB_HP_CAN1_TX_IRQHandler                0x080212e3   Thumb Code     0  startup_stm32f10x_hd.o(.text)
    USB_LP_CAN1_RX0_IRQHandler               0x080212e3   Thumb Code     0  startup_stm32f10x_hd.o(.text)
    WWDG_IRQHandler                          0x080212e3   Thumb Code     0  startup_stm32f10x_hd.o(.text)
    __user_initial_stackheap                 0x080212e5   Thumb Code     0  startup_stm32f10x_hd.o(.text)
    catch_handler                            0x08021309   Thumb Code     2  main.o(.text)
    HardFault_Handler                        0x0802130b   Thumb Code    30  main.o(.text)
    MemManage_Handler                        0x08021329   Thumb Code    30  main.o(.text)
    BusFault_Handler                         0x08021347   Thumb Code    30  main.o(.text)
    UsageFault_Handler                       0x08021365   Thumb Code    30  main.o(.text)
    CauseOfReset                             0x08021383   Thumb Code    26  main.o(.text)
    main                                     0x0802139d   Thumb Code   282  main.o(.text)
    Q_onAssert                               0x08021509   Thumb Code    24  bsp.o(.text)
    QS_onStartup                             0x08021521   Thumb Code   388  bsp.o(.text)
    Bsp_init                                 0x080217af   Thumb Code    84  bsp.o(.text)
    SysTick_Handler                          0x08021803   Thumb Code   162  bsp.o(.text)
    QK_onIdle                                0x080218a5   Thumb Code    40  bsp.o(.text)
    QF_onCleanup                             0x080218cd   Thumb Code     2  bsp.o(.text)
    QF_onStartup                             0x080218cf   Thumb Code   118  bsp.o(.text)
    QS_onCleanup                             0x08021945   Thumb Code     2  bsp.o(.text)
    QS_onGetTime                             0x08021947   Thumb Code    30  bsp.o(.text)
    QS_onFlush                               0x08021965   Thumb Code    32  bsp.o(.text)
    ConfigPacketMaker                        0x0802210f   Thumb Code   672  config.o(.text)
    SystemInit                               0x08022533   Thumb Code    48  system_stm32f10x.o(.text)
    Crc32Eth                                 0x08022575   Thumb Code    36  crc32.o(.text)
    InitCRC16                                0x0802259d   Thumb Code    10  crc16.o(.text)
    CalcCRC16                                0x080225a7   Thumb Code    24  crc16.o(.text)
    MakeCRC16                                0x080225bf   Thumb Code    50  crc16.o(.text)
    QK_init                                  0x080225fd   Thumb Code     0  qk_port.o(.text)
    PendSV_Handler                           0x0802261d   Thumb Code     0  qk_port.o(.text)
    SVC_Handler                              0x08022653   Thumb Code     0  qk_port.o(.text)
    DMA_DeInit                               0x08022665   Thumb Code   220  stm32f10x_dma.o(.text)
    DMA_Init                                 0x08022741   Thumb Code    58  stm32f10x_dma.o(.text)
    DMA_StructInit                           0x0802277b   Thumb Code    26  stm32f10x_dma.o(.text)
    DMA_Cmd                                  0x08022795   Thumb Code    24  stm32f10x_dma.o(.text)
    DMA_ITConfig                             0x080227ad   Thumb Code    20  stm32f10x_dma.o(.text)
    DMA_GetCurrDataCounter                   0x080227c1   Thumb Code     6  stm32f10x_dma.o(.text)
    DMA_GetFlagStatus                        0x080227c7   Thumb Code    30  stm32f10x_dma.o(.text)
    DMA_ClearFlag                            0x080227e5   Thumb Code    18  stm32f10x_dma.o(.text)
    DMA_GetITStatus                          0x080227f7   Thumb Code    30  stm32f10x_dma.o(.text)
    DMA_ClearITPendingBit                    0x08022815   Thumb Code    18  stm32f10x_dma.o(.text)
    FLASH_SetLatency                         0x08022839   Thumb Code    14  stm32f10x_flash.o(.text)
    FLASH_HalfCycleAccessCmd                 0x08022847   Thumb Code    18  stm32f10x_flash.o(.text)
    FLASH_PrefetchBufferCmd                  0x08022859   Thumb Code    18  stm32f10x_flash.o(.text)
    FLASH_Unlock                             0x0802286b   Thumb Code    12  stm32f10x_flash.o(.text)
    FLASH_Lock                               0x08022877   Thumb Code    12  stm32f10x_flash.o(.text)
    FLASH_GetStatus                          0x08022883   Thumb Code    34  stm32f10x_flash.o(.text)
    FLASH_WaitForLastOperation               0x080228bb   Thumb Code    36  stm32f10x_flash.o(.text)
    FLASH_ErasePage                          0x080228df   Thumb Code    60  stm32f10x_flash.o(.text)
    FLASH_EraseAllPages                      0x0802291b   Thumb Code    56  stm32f10x_flash.o(.text)
    FLASH_EraseOptionBytes                   0x08022953   Thumb Code   110  stm32f10x_flash.o(.text)
    FLASH_ProgramWord                        0x080229c1   Thumb Code    80  stm32f10x_flash.o(.text)
    FLASH_ProgramHalfWord                    0x08022a11   Thumb Code    50  stm32f10x_flash.o(.text)
    FLASH_ProgramOptionByteData              0x08022a43   Thumb Code    58  stm32f10x_flash.o(.text)
    FLASH_EnableWriteProtection              0x08022a7d   Thumb Code   152  stm32f10x_flash.o(.text)
    FLASH_ReadOutProtection                  0x08022b15   Thumb Code   120  stm32f10x_flash.o(.text)
    FLASH_UserOptionByteConfig               0x08022b8d   Thumb Code    74  stm32f10x_flash.o(.text)
    FLASH_GetUserOptionByte                  0x08022bd7   Thumb Code     8  stm32f10x_flash.o(.text)
    FLASH_GetWriteProtectionOptionByte       0x08022bdf   Thumb Code     6  stm32f10x_flash.o(.text)
    FLASH_GetReadOutProtectionStatus         0x08022be5   Thumb Code    14  stm32f10x_flash.o(.text)
    FLASH_GetPrefetchBufferStatus            0x08022bf3   Thumb Code    14  stm32f10x_flash.o(.text)
    FLASH_ITConfig                           0x08022c01   Thumb Code    40  stm32f10x_flash.o(.text)
    FLASH_GetFlagStatus                      0x08022c29   Thumb Code    30  stm32f10x_flash.o(.text)
    FLASH_ClearFlag                          0x08022c47   Thumb Code     6  stm32f10x_flash.o(.text)
    GPIO_DeInit                              0x08022c51   Thumb Code   188  stm32f10x_gpio.o(.text)
    GPIO_AFIODeInit                          0x08022d0d   Thumb Code    22  stm32f10x_gpio.o(.text)
    GPIO_Init                                0x08022d23   Thumb Code   166  stm32f10x_gpio.o(.text)
    GPIO_StructInit                          0x08022dc9   Thumb Code    16  stm32f10x_gpio.o(.text)
    GPIO_ReadInputDataBit                    0x08022dd9   Thumb Code    14  stm32f10x_gpio.o(.text)
    GPIO_ReadInputData                       0x08022de7   Thumb Code     6  stm32f10x_gpio.o(.text)
    GPIO_ReadOutputDataBit                   0x08022ded   Thumb Code    14  stm32f10x_gpio.o(.text)
    GPIO_ReadOutputData                      0x08022dfb   Thumb Code     6  stm32f10x_gpio.o(.text)
    GPIO_SetBits                             0x08022e01   Thumb Code     4  stm32f10x_gpio.o(.text)
    GPIO_ResetBits                           0x08022e05   Thumb Code     4  stm32f10x_gpio.o(.text)
    GPIO_WriteBit                            0x08022e09   Thumb Code    12  stm32f10x_gpio.o(.text)
    GPIO_Write                               0x08022e15   Thumb Code     4  stm32f10x_gpio.o(.text)
    GPIO_PinLockConfig                       0x08022e19   Thumb Code    16  stm32f10x_gpio.o(.text)
    GPIO_EventOutputConfig                   0x08022e29   Thumb Code    22  stm32f10x_gpio.o(.text)
    GPIO_EventOutputCmd                      0x08022e3f   Thumb Code     6  stm32f10x_gpio.o(.text)
    GPIO_PinRemapConfig                      0x08022e45   Thumb Code    70  stm32f10x_gpio.o(.text)
    GPIO_EXTILineConfig                      0x08022e8b   Thumb Code    34  stm32f10x_gpio.o(.text)
    RCC_DeInit                               0x08022ebd   Thumb Code    48  stm32f10x_rcc.o(.text)
    RCC_HSEConfig                            0x08022eed   Thumb Code    50  stm32f10x_rcc.o(.text)
    RCC_GetFlagStatus                        0x08022f1f   Thumb Code    42  stm32f10x_rcc.o(.text)
    RCC_WaitForHSEStartUp                    0x08022f49   Thumb Code    46  stm32f10x_rcc.o(.text)
    RCC_AdjustHSICalibrationValue            0x08022f77   Thumb Code    16  stm32f10x_rcc.o(.text)
    RCC_HSICmd                               0x08022f87   Thumb Code     6  stm32f10x_rcc.o(.text)
    RCC_PLLConfig                            0x08022f8d   Thumb Code    16  stm32f10x_rcc.o(.text)
    RCC_PLLCmd                               0x08022f9d   Thumb Code     6  stm32f10x_rcc.o(.text)
    RCC_SYSCLKConfig                         0x08022fa3   Thumb Code    14  stm32f10x_rcc.o(.text)
    RCC_GetSYSCLKSource                      0x08022fb1   Thumb Code    10  stm32f10x_rcc.o(.text)
    RCC_HCLKConfig                           0x08022fbb   Thumb Code    14  stm32f10x_rcc.o(.text)
    RCC_PCLK1Config                          0x08022fc9   Thumb Code    14  stm32f10x_rcc.o(.text)
    RCC_PCLK2Config                          0x08022fd7   Thumb Code    16  stm32f10x_rcc.o(.text)
    RCC_ITConfig                             0x08022fe7   Thumb Code    22  stm32f10x_rcc.o(.text)
    RCC_USBCLKConfig                         0x08022ffd   Thumb Code     8  stm32f10x_rcc.o(.text)
    RCC_ADCCLKConfig                         0x08023005   Thumb Code    14  stm32f10x_rcc.o(.text)
    RCC_LSEConfig                            0x08023013   Thumb Code    36  stm32f10x_rcc.o(.text)
    RCC_LSICmd                               0x08023037   Thumb Code     6  stm32f10x_rcc.o(.text)
    RCC_RTCCLKConfig                         0x0802303d   Thumb Code    10  stm32f10x_rcc.o(.text)
    RCC_RTCCLKCmd                            0x08023047   Thumb Code     8  stm32f10x_rcc.o(.text)
    RCC_GetClocksFreq                        0x0802304f   Thumb Code   154  stm32f10x_rcc.o(.text)
    RCC_AHBPeriphClockCmd                    0x080230e9   Thumb Code    22  stm32f10x_rcc.o(.text)
    RCC_APB2PeriphClockCmd                   0x080230ff   Thumb Code    22  stm32f10x_rcc.o(.text)
    RCC_APB1PeriphClockCmd                   0x08023115   Thumb Code    22  stm32f10x_rcc.o(.text)
    RCC_APB2PeriphResetCmd                   0x0802312b   Thumb Code    22  stm32f10x_rcc.o(.text)
    RCC_APB1PeriphResetCmd                   0x08023141   Thumb Code    22  stm32f10x_rcc.o(.text)
    RCC_BackupResetCmd                       0x08023157   Thumb Code     8  stm32f10x_rcc.o(.text)
    RCC_ClockSecuritySystemCmd               0x0802315f   Thumb Code     6  stm32f10x_rcc.o(.text)
    RCC_MCOConfig                            0x08023165   Thumb Code     6  stm32f10x_rcc.o(.text)
    RCC_ClearFlag                            0x0802316b   Thumb Code    12  stm32f10x_rcc.o(.text)
    RCC_GetITStatus                          0x08023177   Thumb Code    16  stm32f10x_rcc.o(.text)
    RCC_ClearITPendingBit                    0x08023187   Thumb Code     6  stm32f10x_rcc.o(.text)
    SPI_I2S_DeInit                           0x080231ad   Thumb Code    88  stm32f10x_spi.o(.text)
    SPI_Init                                 0x08023205   Thumb Code    56  stm32f10x_spi.o(.text)
    I2S_Init                                 0x0802323d   Thumb Code   168  stm32f10x_spi.o(.text)
    SPI_StructInit                           0x080232e5   Thumb Code    24  stm32f10x_spi.o(.text)
    I2S_StructInit                           0x080232fd   Thumb Code    18  stm32f10x_spi.o(.text)
    SPI_Cmd                                  0x0802330f   Thumb Code    24  stm32f10x_spi.o(.text)
    I2S_Cmd                                  0x08023327   Thumb Code    24  stm32f10x_spi.o(.text)
    SPI_I2S_ITConfig                         0x0802333f   Thumb Code    28  stm32f10x_spi.o(.text)
    SPI_I2S_DMACmd                           0x0802335b   Thumb Code    20  stm32f10x_spi.o(.text)
    SPI_I2S_SendData                         0x0802336f   Thumb Code     4  stm32f10x_spi.o(.text)
    SPI_I2S_ReceiveData                      0x08023373   Thumb Code     4  stm32f10x_spi.o(.text)
    SPI_NSSInternalSoftwareConfig            0x08023377   Thumb Code    28  stm32f10x_spi.o(.text)
    SPI_SSOutputCmd                          0x08023393   Thumb Code    24  stm32f10x_spi.o(.text)
    SPI_DataSizeConfig                       0x080233ab   Thumb Code    16  stm32f10x_spi.o(.text)
    SPI_TransmitCRC                          0x080233bb   Thumb Code    10  stm32f10x_spi.o(.text)
    SPI_CalculateCRC                         0x080233c5   Thumb Code    24  stm32f10x_spi.o(.text)
    SPI_GetCRC                               0x080233dd   Thumb Code    12  stm32f10x_spi.o(.text)
    SPI_GetCRCPolynomial                     0x080233e9   Thumb Code     4  stm32f10x_spi.o(.text)
    SPI_BiDirectionalLineConfig              0x080233ed   Thumb Code    26  stm32f10x_spi.o(.text)
    SPI_I2S_GetFlagStatus                    0x08023407   Thumb Code    14  stm32f10x_spi.o(.text)
    SPI_I2S_ClearFlag                        0x08023415   Thumb Code     6  stm32f10x_spi.o(.text)
    SPI_I2S_GetITStatus                      0x0802341b   Thumb Code    44  stm32f10x_spi.o(.text)
    SPI_I2S_ClearITPendingBit                0x08023447   Thumb Code    14  stm32f10x_spi.o(.text)
    TIM_DeInit                               0x08023459   Thumb Code   216  stm32f10x_tim.o(.text)
    TIM_TimeBaseInit                         0x08023531   Thumb Code    50  stm32f10x_tim.o(.text)
    TIM_OC1Init                              0x08023563   Thumb Code    92  stm32f10x_tim.o(.text)
    TIM_OC2Init                              0x080235bf   Thumb Code   124  stm32f10x_tim.o(.text)
    TIM_OC3Init                              0x0802363b   Thumb Code   120  stm32f10x_tim.o(.text)
    TIM_OC4Init                              0x080236b3   Thumb Code    90  stm32f10x_tim.o(.text)
    TIM_SetIC4Prescaler                      0x0802370d   Thumb Code    24  stm32f10x_tim.o(.text)
    TIM_SetIC3Prescaler                      0x0802375b   Thumb Code    16  stm32f10x_tim.o(.text)
    TIM_SetIC2Prescaler                      0x0802379d   Thumb Code    24  stm32f10x_tim.o(.text)
    TIM_SetIC1Prescaler                      0x080237eb   Thumb Code    16  stm32f10x_tim.o(.text)
    TIM_ICInit                               0x08023829   Thumb Code   108  stm32f10x_tim.o(.text)
    TIM_PWMIConfig                           0x08023895   Thumb Code   106  stm32f10x_tim.o(.text)
    TIM_BDTRConfig                           0x080238ff   Thumb Code    34  stm32f10x_tim.o(.text)
    TIM_TimeBaseStructInit                   0x08023921   Thumb Code    18  stm32f10x_tim.o(.text)
    TIM_OCStructInit                         0x08023933   Thumb Code    20  stm32f10x_tim.o(.text)
    TIM_ICStructInit                         0x08023947   Thumb Code    16  stm32f10x_tim.o(.text)
    TIM_BDTRStructInit                       0x08023957   Thumb Code    18  stm32f10x_tim.o(.text)
    TIM_Cmd                                  0x08023969   Thumb Code    26  stm32f10x_tim.o(.text)
    TIM_CtrlPWMOutputs                       0x08023983   Thumb Code    28  stm32f10x_tim.o(.text)
    TIM_ITConfig                             0x0802399f   Thumb Code    20  stm32f10x_tim.o(.text)
    TIM_GenerateEvent                        0x080239b3   Thumb Code     4  stm32f10x_tim.o(.text)
    TIM_DMAConfig                            0x080239b7   Thumb Code     8  stm32f10x_tim.o(.text)
    TIM_DMACmd                               0x080239bf   Thumb Code    20  stm32f10x_tim.o(.text)
    TIM_InternalClockConfig                  0x080239d3   Thumb Code    10  stm32f10x_tim.o(.text)
    TIM_SelectInputTrigger                   0x080239dd   Thumb Code    12  stm32f10x_tim.o(.text)
    TIM_ITRxExternalClockConfig              0x080239e9   Thumb Code    20  stm32f10x_tim.o(.text)
    TIM_TIxExternalClockConfig               0x080239fd   Thumb Code    48  stm32f10x_tim.o(.text)
    TIM_ETRConfig                            0x08023a2d   Thumb Code    24  stm32f10x_tim.o(.text)
    TIM_ETRClockMode1Config                  0x08023a45   Thumb Code    32  stm32f10x_tim.o(.text)
    TIM_ETRClockMode2Config                  0x08023a65   Thumb Code    20  stm32f10x_tim.o(.text)
    TIM_PrescalerConfig                      0x08023a79   Thumb Code     6  stm32f10x_tim.o(.text)
    TIM_CounterModeConfig                    0x08023a7f   Thumb Code    14  stm32f10x_tim.o(.text)
    TIM_EncoderInterfaceConfig               0x08023a8d   Thumb Code    50  stm32f10x_tim.o(.text)
    TIM_ForcedOC1Config                      0x08023abf   Thumb Code    12  stm32f10x_tim.o(.text)
    TIM_ForcedOC2Config                      0x08023acb   Thumb Code    20  stm32f10x_tim.o(.text)
    TIM_ForcedOC3Config                      0x08023adf   Thumb Code    12  stm32f10x_tim.o(.text)
    TIM_ForcedOC4Config                      0x08023aeb   Thumb Code    20  stm32f10x_tim.o(.text)
    TIM_ARRPreloadConfig                     0x08023aff   Thumb Code    26  stm32f10x_tim.o(.text)
    TIM_SelectCOM                            0x08023b19   Thumb Code    24  stm32f10x_tim.o(.text)
    TIM_SelectCCDMA                          0x08023b31   Thumb Code    24  stm32f10x_tim.o(.text)
    TIM_CCPreloadControl                     0x08023b49   Thumb Code    24  stm32f10x_tim.o(.text)
    TIM_OC1PreloadConfig                     0x08023b61   Thumb Code    12  stm32f10x_tim.o(.text)
    TIM_OC2PreloadConfig                     0x08023b6d   Thumb Code    20  stm32f10x_tim.o(.text)
    TIM_OC3PreloadConfig                     0x08023b81   Thumb Code    12  stm32f10x_tim.o(.text)
    TIM_OC4PreloadConfig                     0x08023b8d   Thumb Code    20  stm32f10x_tim.o(.text)
    TIM_OC1FastConfig                        0x08023ba1   Thumb Code    12  stm32f10x_tim.o(.text)
    TIM_OC2FastConfig                        0x08023bad   Thumb Code    20  stm32f10x_tim.o(.text)
    TIM_OC3FastConfig                        0x08023bc1   Thumb Code    12  stm32f10x_tim.o(.text)
    TIM_OC4FastConfig                        0x08023bcd   Thumb Code    20  stm32f10x_tim.o(.text)
    TIM_ClearOC1Ref                          0x08023be1   Thumb Code    12  stm32f10x_tim.o(.text)
    TIM_ClearOC2Ref                          0x08023bed   Thumb Code    20  stm32f10x_tim.o(.text)
    TIM_ClearOC3Ref                          0x08023c01   Thumb Code    12  stm32f10x_tim.o(.text)
    TIM_ClearOC4Ref                          0x08023c0d   Thumb Code    20  stm32f10x_tim.o(.text)
    TIM_OC1PolarityConfig                    0x08023c21   Thumb Code    12  stm32f10x_tim.o(.text)
    TIM_OC1NPolarityConfig                   0x08023c2d   Thumb Code    12  stm32f10x_tim.o(.text)
    TIM_OC2PolarityConfig                    0x08023c39   Thumb Code    20  stm32f10x_tim.o(.text)
    TIM_OC2NPolarityConfig                   0x08023c4d   Thumb Code    20  stm32f10x_tim.o(.text)
    TIM_OC3PolarityConfig                    0x08023c61   Thumb Code    20  stm32f10x_tim.o(.text)
    TIM_OC3NPolarityConfig                   0x08023c75   Thumb Code    20  stm32f10x_tim.o(.text)
    TIM_OC4PolarityConfig                    0x08023c89   Thumb Code    20  stm32f10x_tim.o(.text)
    TIM_CCxCmd                               0x08023c9d   Thumb Code    22  stm32f10x_tim.o(.text)
    TIM_CCxNCmd                              0x08023cb3   Thumb Code    22  stm32f10x_tim.o(.text)
    TIM_SelectOCxM                           0x08023cc9   Thumb Code    76  stm32f10x_tim.o(.text)
    TIM_UpdateDisableConfig                  0x08023d15   Thumb Code    26  stm32f10x_tim.o(.text)
    TIM_UpdateRequestConfig                  0x08023d2f   Thumb Code    26  stm32f10x_tim.o(.text)
    TIM_SelectHallSensor                     0x08023d49   Thumb Code    24  stm32f10x_tim.o(.text)
    TIM_SelectOnePulseMode                   0x08023d61   Thumb Code    18  stm32f10x_tim.o(.text)
    TIM_SelectOutputTrigger                  0x08023d73   Thumb Code    16  stm32f10x_tim.o(.text)
    TIM_SelectSlaveMode                      0x08023d83   Thumb Code    16  stm32f10x_tim.o(.text)
    TIM_SelectMasterSlaveMode                0x08023d93   Thumb Code    16  stm32f10x_tim.o(.text)
    TIM_SetCounter                           0x08023da3   Thumb Code     4  stm32f10x_tim.o(.text)
    TIM_SetAutoreload                        0x08023da7   Thumb Code     4  stm32f10x_tim.o(.text)
    TIM_SetCompare1                          0x08023dab   Thumb Code     4  stm32f10x_tim.o(.text)
    TIM_SetCompare2                          0x08023daf   Thumb Code     4  stm32f10x_tim.o(.text)
    TIM_SetCompare3                          0x08023db3   Thumb Code     4  stm32f10x_tim.o(.text)
    TIM_SetCompare4                          0x08023db7   Thumb Code     6  stm32f10x_tim.o(.text)
    TIM_SetClockDivision                     0x08023dbd   Thumb Code    14  stm32f10x_tim.o(.text)
    TIM_GetCapture1                          0x08023dcb   Thumb Code     4  stm32f10x_tim.o(.text)
    TIM_GetCapture2                          0x08023dcf   Thumb Code     4  stm32f10x_tim.o(.text)
    TIM_GetCapture3                          0x08023dd3   Thumb Code     4  stm32f10x_tim.o(.text)
    TIM_GetCapture4                          0x08023dd7   Thumb Code     6  stm32f10x_tim.o(.text)
    TIM_GetCounter                           0x08023ddd   Thumb Code     4  stm32f10x_tim.o(.text)
    TIM_GetPrescaler                         0x08023de1   Thumb Code     4  stm32f10x_tim.o(.text)
    TIM_GetFlagStatus                        0x08023de5   Thumb Code    14  stm32f10x_tim.o(.text)
    TIM_ClearFlag                            0x08023df3   Thumb Code     6  stm32f10x_tim.o(.text)
    TIM_GetITStatus                          0x08023df9   Thumb Code    24  stm32f10x_tim.o(.text)
    TIM_ClearITPendingBit                    0x08023e11   Thumb Code     6  stm32f10x_tim.o(.text)
    USART_DeInit                             0x08023e19   Thumb Code   146  stm32f10x_usart.o(.text)
    USART_Init                               0x08023eab   Thumb Code   134  stm32f10x_usart.o(.text)
    USART_StructInit                         0x08023f31   Thumb Code    22  stm32f10x_usart.o(.text)
    USART_ClockInit                          0x08023f47   Thumb Code    30  stm32f10x_usart.o(.text)
    USART_ClockStructInit                    0x08023f65   Thumb Code    12  stm32f10x_usart.o(.text)
    USART_Cmd                                0x08023f71   Thumb Code    24  stm32f10x_usart.o(.text)
    USART_ITConfig                           0x08023f89   Thumb Code    50  stm32f10x_usart.o(.text)
    USART_DMACmd                             0x08023fbb   Thumb Code    20  stm32f10x_usart.o(.text)
    USART_SetAddress                         0x08023fcf   Thumb Code    16  stm32f10x_usart.o(.text)
    USART_WakeUpConfig                       0x08023fdf   Thumb Code    16  stm32f10x_usart.o(.text)
    USART_ReceiverWakeUpCmd                  0x08023fef   Thumb Code    24  stm32f10x_usart.o(.text)
    USART_LINBreakDetectLengthConfig         0x08024007   Thumb Code    16  stm32f10x_usart.o(.text)
    USART_LINCmd                             0x08024017   Thumb Code    24  stm32f10x_usart.o(.text)
    USART_SendData                           0x0802402f   Thumb Code     8  stm32f10x_usart.o(.text)
    USART_ReceiveData                        0x08024037   Thumb Code     8  stm32f10x_usart.o(.text)
    USART_SendBreak                          0x0802403f   Thumb Code    10  stm32f10x_usart.o(.text)
    USART_SetGuardTime                       0x08024049   Thumb Code    16  stm32f10x_usart.o(.text)
    USART_SetPrescaler                       0x08024059   Thumb Code    16  stm32f10x_usart.o(.text)
    USART_SmartCardCmd                       0x08024069   Thumb Code    24  stm32f10x_usart.o(.text)
    USART_SmartCardNACKCmd                   0x08024081   Thumb Code    24  stm32f10x_usart.o(.text)
    USART_HalfDuplexCmd                      0x08024099   Thumb Code    24  stm32f10x_usart.o(.text)
    USART_IrDAConfig                         0x080240b1   Thumb Code    16  stm32f10x_usart.o(.text)
    USART_IrDACmd                            0x080240c1   Thumb Code    24  stm32f10x_usart.o(.text)
    USART_GetFlagStatus                      0x080240d9   Thumb Code    14  stm32f10x_usart.o(.text)
    USART_ClearFlag                          0x080240e7   Thumb Code     6  stm32f10x_usart.o(.text)
    USART_GetITStatus                        0x080240ed   Thumb Code    60  stm32f10x_usart.o(.text)
    USART_ClearITPendingBit                  0x08024129   Thumb Code    12  stm32f10x_usart.o(.text)
    NVIC_PriorityGroupConfig                 0x08024141   Thumb Code    10  misc.o(.text)
    NVIC_Init                                0x0802414b   Thumb Code    96  misc.o(.text)
    NVIC_SetVectorTable                      0x080241ab   Thumb Code    14  misc.o(.text)
    NVIC_SystemLPConfig                      0x080241b9   Thumb Code    24  misc.o(.text)
    SysTick_CLKSourceConfig                  0x080241d1   Thumb Code    28  misc.o(.text)
    EXTI_DeInit                              0x080241f9   Thumb Code    28  stm32f10x_exti.o(.text)
    EXTI_Init                                0x08024215   Thumb Code   124  stm32f10x_exti.o(.text)
    EXTI_StructInit                          0x08024291   Thumb Code    14  stm32f10x_exti.o(.text)
    EXTI_GenerateSWInterrupt                 0x0802429f   Thumb Code    12  stm32f10x_exti.o(.text)
    EXTI_GetFlagStatus                       0x080242ab   Thumb Code    18  stm32f10x_exti.o(.text)
    EXTI_ClearFlag                           0x080242bd   Thumb Code     8  stm32f10x_exti.o(.text)
    EXTI_GetITStatus                         0x080242c5   Thumb Code    28  stm32f10x_exti.o(.text)
    EXTI_ClearITPendingBit                   0x080242e1   Thumb Code     8  stm32f10x_exti.o(.text)
    OutDebugModem                            0x080242f5   Thumb Code    62  modem.o(.text)
    OutDebugModemSprintf2                    0x08024343   Thumb Code    94  modem.o(.text)
    OutDebugModemSprintf1                    0x080243a1   Thumb Code    72  modem.o(.text)
    Modem_ctor                               0x08028663   Thumb Code    38  modem.o(.text)
    MakeMsgSms                               0x08028689   Thumb Code   444  modem.o(.text)
    Mparser_ctor                             0x08029295   Thumb Code     8  modem_parser.o(.text)
    ModemSendCommand                         0x080293e1   Thumb Code    86  modem_sim900.o(.text)
    ModemSendData                            0x08029839   Thumb Code    48  modem_sim900.o(.text)
    ModemRxPin_deinit                        0x0802a0c3   Thumb Code    36  modem_sim900.o(.text)
    ModemTxPin_deinit                        0x0802a0e7   Thumb Code    36  modem_sim900.o(.text)
    ModemSM_ctor                             0x0802ae63   Thumb Code     6  modem_sim900.o(.text)
    ModemSM_check_unread_data                0x0802af57   Thumb Code   154  modem_sim900.o(.text)
    DMA1_Channel4_IRQHandler                 0x0802aff1   Thumb Code    18  modem_sim900.o(.text)
    USART1_IRQHandler                        0x0802b003   Thumb Code    34  modem_sim900.o(.text)
    ModemRingBuf_init                        0x0802b071   Thumb Code    26  modemringbuf.o(.text)
    ring_buf_clear                           0x0802b08b   Thumb Code    12  modemringbuf.o(.text)
    ModemRingBuf_pop                         0x0802b0b7   Thumb Code    34  modemringbuf.o(.text)
    ModemRingBuf_push                        0x0802b0d9   Thumb Code    42  modemringbuf.o(.text)
    ModemRingBuf_count                       0x0802b103   Thumb Code     6  modemringbuf.o(.text)
    QActive_ctor                             0x0802b10d   Thumb Code    16  qa_ctor.o(.text)
    QActive_defer                            0x0802b121   Thumb Code    10  qa_defer.o(.text)
    QActive_recall                           0x0802b12b   Thumb Code    68  qa_defer.o(.text)
    QActive_post                             0x0802b175   Thumb Code   350  qa_fifo.o(.text)
    QActive_get_                             0x0802b2f1   Thumb Code   246  qa_get_.o(.text)
    QF_getQueueMin                           0x0802b3e7   Thumb Code    44  qa_get_.o(.text)
    QActive_postLIFO                         0x0802b42d   Thumb Code   206  qa_lifo.o(.text)
    QActive_subscribe                        0x0802b515   Thumb Code   130  qa_sub.o(.text)
    QEQueue_post                             0x0802b5b5   Thumb Code   258  qeq_fifo.o(.text)
    QEQueue_get                              0x0802b6c1   Thumb Code   206  qeq_get.o(.text)
    QEQueue_init                             0x0802b799   Thumb Code    76  qeq_init.o(.text)
    QF_add_                                  0x0802b7e9   Thumb Code    92  qf_act.o(.text)
    QF_remove_                               0x0802b845   Thumb Code    98  qf_act.o(.text)
    QF_gc                                    0x0802b8b5   Thumb Code   156  qf_gc.o(.text)
    QF_newX_                                 0x0802b961   Thumb Code   150  qf_new.o(.text)
    QF_poolInit                              0x0802ba09   Thumb Code    88  qf_pool.o(.text)
    QF_psInit                                0x0802ba6d   Thumb Code     8  qf_psini.o(.text)
    QF_publish                               0x0802ba79   Thumb Code   192  qf_pspub.o(.text)
    QF_tickX                                 0x0802bb51   Thumb Code   302  qf_tick.o(.text)
    QF_noTimeEvtsActiveX                     0x0802bc7f   Thumb Code    42  qf_tick.o(.text)
    QMPool_get                               0x0802bcb5   Thumb Code   176  qmp_get.o(.text)
    QF_getPoolMin                            0x0802bd65   Thumb Code    52  qmp_get.o(.text)
    QMPool_init                              0x0802bda9   Thumb Code   172  qmp_init.o(.text)
    QMPool_put                               0x0802be5d   Thumb Code   116  qmp_put.o(.text)
    QTimeEvt_armX                            0x0802bed9   Thumb Code   156  qte_arm.o(.text)
    QTimeEvt_ctorX                           0x0802bf81   Thumb Code    48  qte_ctor.o(.text)
    QTimeEvt_disarm                          0x0802bfb5   Thumb Code   152  qte_darm.o(.text)
    QF_init                                  0x0802c051   Thumb Code     4  qk.o(.text)
    QF_stop                                  0x0802c055   Thumb Code     4  qk.o(.text)
    QF_run                                   0x0802c073   Thumb Code    26  qk.o(.text)
    QActive_start                            0x0802c08d   Thumb Code    86  qk.o(.text)
    QActive_stop                             0x0802c0e3   Thumb Code     4  qk.o(.text)
    QK_schedPrio_                            0x0802c0f1   Thumb Code    66  qk_sched.o(.text)
    QK_sched_                                0x0802c133   Thumb Code   186  qk_sched.o(.text)
    QS_endRec                                0x0802c201   Thumb Code   102  qs.o(.text)
    QS_beginRec                              0x0802c267   Thumb Code   102  qs.o(.text)
    QS_initBuf                               0x0802c2cd   Thumb Code    58  qs.o(.text)
    QS_filterOn                              0x0802c307   Thumb Code    62  qs.o(.text)
    QS_filterOff                             0x0802c345   Thumb Code    80  qs.o(.text)
    QS_u8                                    0x0802c395   Thumb Code   138  qs.o(.text)
    QS_u16                                   0x0802c41f   Thumb Code   198  qs.o(.text)
    QS_u32                                   0x0802c4e5   Thumb Code   156  qs.o(.text)
    QS_u8_                                   0x0802c589   Thumb Code    84  qs_.o(.text)
    QS_u8u8_                                 0x0802c5dd   Thumb Code   138  qs_.o(.text)
    QS_u16_                                  0x0802c667   Thumb Code   144  qs_.o(.text)
    QS_u32_                                  0x0802c6f7   Thumb Code   100  qs_.o(.text)
    QS_str_                                  0x0802c75b   Thumb Code    68  qs_.o(.text)
    QS_str_ROM_                              0x0802c79f   Thumb Code    68  qs_.o(.text)
    QS_getByte                               0x0802c7e9   Thumb Code    40  qs_byte.o(.text)
    QS_sig_dict                              0x0802c815   Thumb Code    56  qs_dict.o(.text)
    QS_obj_dict                              0x0802c84d   Thumb Code    48  qs_dict.o(.text)
    QS_fun_dict                              0x0802c87d   Thumb Code    48  qs_dict.o(.text)
    QS_usr_dict                              0x0802c8ad   Thumb Code    48  qs_dict.o(.text)
    QS_str                                   0x0802c8dd   Thumb Code    88  qs_str.o(.text)
    QS_str_ROM                               0x0802c935   Thumb Code    88  qs_str.o(.text)
    QFsm_dispatch                            0x0802c991   Thumb Code   508  qfsm_dis.o(.text)
    QFsm_ctor                                0x0802cb99   Thumb Code    12  qfsm_ini.o(.text)
    QFsm_init                                0x0802cba5   Thumb Code   182  qfsm_ini.o(.text)
    QHsm_dispatch                            0x0802cc69   Thumb Code  1304  qhsm_dis.o(.text)
    QHsm_ctor                                0x0802d189   Thumb Code    12  qhsm_ini.o(.text)
    QHsm_init                                0x0802d195   Thumb Code   316  qhsm_ini.o(.text)
    QHsm_top                                 0x0802d2e1   Thumb Code     4  qhsm_top.o(.text)
    ProcessCommand                           0x0802d2e5   Thumb Code   292  parsersms.o(.text)
    FindPassword                             0x0802d409   Thumb Code    56  parsersms.o(.text)
    ParserSms                                0x0802d45f   Thumb Code    66  parsersms.o(.text)
    CheckPassword                            0x0802d4a1   Thumb Code    96  parsersms.o(.text)
    ShortToBigEndianStream                   0x0802d539   Thumb Code    16  bytestream.o(.text)
    IntToBigEndianStream                     0x0802d549   Thumb Code    20  bytestream.o(.text)
    LongToBigEndianStream                    0x0802d55d   Thumb Code    20  bytestream.o(.text)
    BufToLittleEndianInt                     0x0802d571   Thumb Code    16  bytestream.o(.text)
    MemorySpi_init                           0x0802d581   Thumb Code   136  memory_spi.o(.text)
    GetPageBits                              0x0802d611   Thumb Code     6  at45db.o(.text)
    AT45_CS_init                             0x0802d617   Thumb Code    46  at45db.o(.text)
    AT45DBSpiReadWriteByte                   0x0802d645   Thumb Code    38  at45db.o(.text)
    ReadDfStatus                             0x0802d66b   Thumb Code    66  at45db.o(.text)
    ReadByteFromBuf1                         0x0802d6ad   Thumb Code    84  at45db.o(.text)
    ReadByteFromBuf2                         0x0802d701   Thumb Code    84  at45db.o(.text)
    ReadNbytesFromBuf1                       0x0802d755   Thumb Code   100  at45db.o(.text)
    ReadNbytesFromBuf2                       0x0802d7b9   Thumb Code   100  at45db.o(.text)
    ReadPageToBuf1                           0x0802d81d   Thumb Code    76  at45db.o(.text)
    ReadPageToBuf2                           0x0802d869   Thumb Code    76  at45db.o(.text)
    ReadPageDirect                           0x0802d8b5   Thumb Code   124  at45db.o(.text)
    WriteBuf2ToPageWithErase                 0x0802d931   Thumb Code    76  at45db.o(.text)
    FillBuf1                                 0x0802d97d   Thumb Code    86  at45db.o(.text)
    WritePageImageToBuf2                     0x0802d9d3   Thumb Code   102  at45db.o(.text)
    WriteBuf2ToPage                          0x0802da39   Thumb Code    74  at45db.o(.text)
    Buf1ComparePage                          0x0802da83   Thumb Code    74  at45db.o(.text)
    Buf2ComparePage                          0x0802dacd   Thumb Code    74  at45db.o(.text)
    ErasingPage                              0x0802db17   Thumb Code    74  at45db.o(.text)
    ErasingBlock                             0x0802db61   Thumb Code    74  at45db.o(.text)
    ErasingSector0A                          0x0802dbab   Thumb Code    64  at45db.o(.text)
    ErasingSector0B                          0x0802dbeb   Thumb Code    76  at45db.o(.text)
    ErasingNonZeroSector                     0x0802dc37   Thumb Code    78  at45db.o(.text)
    FM25_CS_init                             0x0802dc89   Thumb Code    48  fm25cl64.o(.text)
    FM25_WriteEnableStatusReg                0x0802dd3f   Thumb Code    76  fm25cl64.o(.text)
    FM25_ReadStatusRegister                  0x0802dd8b   Thumb Code    96  fm25cl64.o(.text)
    FM25_ReadByte                            0x0802ddeb   Thumb Code    68  fm25cl64.o(.text)
    FM25CL64_ReadWord                        0x0802de2f   Thumb Code   108  fm25cl64.o(.text)
    FM25_ReadArray                           0x0802de9b   Thumb Code    92  fm25cl64.o(.text)
    FM25_WriteStatusRegister                 0x0802def7   Thumb Code    96  fm25cl64.o(.text)
    FM25_WriteByte                           0x0802df57   Thumb Code    78  fm25cl64.o(.text)
    FM25CL64_WriteWord                       0x0802dfa5   Thumb Code   106  fm25cl64.o(.text)
    FM25_WriteArray                          0x0802e00f   Thumb Code    92  fm25cl64.o(.text)
    FM25_FillPattern                         0x0802e06b   Thumb Code   104  fm25cl64.o(.text)
    CopyFramPointsRingBufImageToRam          0x0802e0d9   Thumb Code    68  framringbuf.o(.text)
    WriteFramPointsRingBufImageToFram        0x0802e11d   Thumb Code    98  framringbuf.o(.text)
    FramRingBuf_Init                         0x0802e17f   Thumb Code    64  framringbuf.o(.text)
    FramRingBuf_Format                       0x0802e1bf   Thumb Code    20  framringbuf.o(.text)
    FramRingBuf_AddToHead                    0x0802e1d3   Thumb Code   136  framringbuf.o(.text)
    FramRingBuf_GetFromTail                  0x0802e25b   Thumb Code   120  framringbuf.o(.text)
    FramRingBuf_GetFromHead                  0x0802e2d3   Thumb Code   152  framringbuf.o(.text)
    FramRingBuf_CopyPointsFromTailToSendBuf  0x0802e36b   Thumb Code   154  framringbuf.o(.text)
    FramRingBuf_CopyPoint                    0x0802e405   Thumb Code   112  framringbuf.o(.text)
    FramRingBuf_GetFromTailToFlashBuf        0x0802e475   Thumb Code   186  framringbuf.o(.text)
    FramRingBuf_UnlockPointsToSend           0x0802e52f   Thumb Code    58  framringbuf.o(.text)
    FramRingBuf_DeletePointsToSend           0x0802e569   Thumb Code   122  framringbuf.o(.text)
    FramRingBuf_size_used                    0x0802e5e3   Thumb Code     8  framringbuf.o(.text)
    FramRingBuf_size_to_send                 0x0802e5eb   Thumb Code     8  framringbuf.o(.text)
    FramRingBuf_size_to_flash                0x0802e5f3   Thumb Code    14  framringbuf.o(.text)
    ConfigReadWriteRS485                     0x0802eb15   Thumb Code    88  disk.o(.text)
    ConfigReadWriteSim                       0x0802eb6d   Thumb Code    88  disk.o(.text)
    Fdisk_ctor                               0x08030733   Thumb Code    44  disk.o(.text)
    Io_ctor                                  0x08030e81   Thumb Code    76  io.o(.text)
    TIM7_IRQHandler                          0x08030ecd   Thumb Code    12  io.o(.text)
    UART5_IRQHandler                         0x08030ed9   Thumb Code   236  io.o(.text)
    EXTI9_5_IRQHandler                       0x08030fc5   Thumb Code    62  io.o(.text)
    TIM1_UP_IRQHandler                       0x08031003   Thumb Code   226  io.o(.text)
    CalcCrc8                                 0x080310e5   Thumb Code    28  crc8.o(.text)
    LedIndicator_init                        0x08031105   Thumb Code   126  ledindicator.o(.text)
    LedIndicator                             0x0803168f   Thumb Code    74  ledindicator.o(.text)
    Control_ctor                             0x08032ce9   Thumb Code    30  control_new.o(.text)
    EpsilonReadData_tx_handler               0x08032d2d   Thumb Code    56  epsilon.o(.text)
    EpsilonReadData_rx_handler               0x08032d65   Thumb Code    82  epsilon.o(.text)
    EpsilonWriteAddr_tx_handler              0x08032db7   Thumb Code    60  epsilon.o(.text)
    EpsilonWriteAddr_rx_handler              0x08032df3   Thumb Code    38  epsilon.o(.text)
    GpsParser_ctor                           0x080342b5   Thumb Code     8  nmea_parser.o(.text)
    UART4_IRQHandler                         0x080342bd   Thumb Code    28  nmea_parser.o(.text)
    OutDebugNavFilter                        0x08034311   Thumb Code    62  nav_filter.o(.text)
    OutDebugNavFilterSprintf                 0x0803434f   Thumb Code    72  nav_filter.o(.text)
    DegrToRad                                0x08034883   Thumb Code    22  nav_filter.o(.text)
    NavFilter_ctor                           0x08035967   Thumb Code     8  nav_filter.o(.text)
    LSM303DLHC_TIMEOUT_UserCallback          0x0803596f   Thumb Code     4  nav_filter.o(.text)
    GpsRingBuf_init                          0x08035ac9   Thumb Code    26  gps_ring_buf.o(.text)
    GpsRingBuf_push                          0x08035b03   Thumb Code    24  gps_ring_buf.o(.text)
    ring_buf_pop_byte                        0x08035b3b   Thumb Code    34  gps_ring_buf.o(.text)
    GpsRingBuf_count                         0x08035b5d   Thumb Code     6  gps_ring_buf.o(.text)
    RF10ReadCardId_tx_handler                0x08035b69   Thumb Code    56  rf10.o(.text)
    RF10ReadCardId_rx_handler                0x08035ba1   Thumb Code   126  rf10.o(.text)
    RF10Rele_tx_handler                      0x08035c1f   Thumb Code    60  rf10.o(.text)
    RF10Rele_rx_handler                      0x08035c5b   Thumb Code    32  rf10.o(.text)
    RF10WriteAddr_tx_handler                 0x08035c7b   Thumb Code    60  rf10.o(.text)
    RF10WriteAddr_rx_handler                 0x08035cb7   Thumb Code    46  rf10.o(.text)
    TL10ReadId_tx_handler                    0x08035ce9   Thumb Code    56  tl10.o(.text)
    TL10ReadId_rx_handler                    0x08035d21   Thumb Code    58  tl10.o(.text)
    TL10WriteAddr_tx_handler                 0x08035d5b   Thumb Code    60  tl10.o(.text)
    TL10WriteAddr_rx_handler                 0x08035d97   Thumb Code    38  tl10.o(.text)
    crc16_teltonika                          0x08035dc5   Thumb Code    46  crc16_teltonika.o(.text)
    __rt_ctype_table                         0x08035df5   Thumb Code    16  rt_ctype_table.o(.text)
    toupper                                  0x08035e05   Thumb Code    30  toupper.o(.text)
    __2sprintf                               0x08035e25   Thumb Code    38  __2sprintf.o(.text)
    _printf_pre_padding                      0x08035e51   Thumb Code    44  _printf_pad.o(.text)
    _printf_post_padding                     0x08035e7d   Thumb Code    34  _printf_pad.o(.text)
    _printf_str                              0x08035e9f   Thumb Code    82  _printf_str.o(.text)
    _printf_int_dec                          0x08035ef1   Thumb Code   104  _printf_dec.o(.text)
    _printf_longlong_hex                     0x08035f69   Thumb Code    86  _printf_hex_int_ll_ptr.o(.text)
    _printf_int_hex                          0x08035fbf   Thumb Code    28  _printf_hex_int_ll_ptr.o(.text)
    _printf_ll_hex                           0x08035fdb   Thumb Code    12  _printf_hex_int_ll_ptr.o(.text)
    _printf_hex_ptr                          0x08035fe7   Thumb Code    18  _printf_hex_int_ll_ptr.o(.text)
    __printf                                 0x08035ffd   Thumb Code   388  __printf_flags_ss_wp.o(.text)
    atoi                                     0x08036185   Thumb Code    26  atoi.o(.text)
    strchr                                   0x0803619f   Thumb Code    20  strchr.o(.text)
    strstr                                   0x080361b3   Thumb Code    36  strstr.o(.text)
    strlcpy                                  0x080361d7   Thumb Code   142  strlcpy.o(.text)
    memcmp                                   0x08036265   Thumb Code    88  memcmp.o(.text)
    strcpy                                   0x080362bd   Thumb Code    72  strcpy.o(.text)
    strlen                                   0x08036305   Thumb Code    62  strlen.o(.text)
    strncmp                                  0x08036343   Thumb Code   150  strncmp.o(.text)
    strcat                                   0x080363d9   Thumb Code    24  strcat.o(.text)
    __aeabi_memcpy                           0x080363f1   Thumb Code     0  rt_memcpy_v6.o(.text)
    __rt_memcpy                              0x080363f1   Thumb Code   138  rt_memcpy_v6.o(.text)
    _memcpy_lastbytes                        0x08036457   Thumb Code     0  rt_memcpy_v6.o(.text)
    __aeabi_memcpy4                          0x0803647b   Thumb Code     0  rt_memcpy_w.o(.text)
    __aeabi_memcpy8                          0x0803647b   Thumb Code     0  rt_memcpy_w.o(.text)
    __rt_memcpy_w                            0x0803647b   Thumb Code   100  rt_memcpy_w.o(.text)
    _memcpy_lastbytes_aligned                0x080364c3   Thumb Code     0  rt_memcpy_w.o(.text)
    __aeabi_memclr                           0x080364df   Thumb Code     0  rt_memclr.o(.text)
    __rt_memclr                              0x080364df   Thumb Code    68  rt_memclr.o(.text)
    _memset                                  0x080364e3   Thumb Code     0  rt_memclr.o(.text)
    __aeabi_memclr4                          0x08036523   Thumb Code     0  rt_memclr_w.o(.text)
    __aeabi_memclr8                          0x08036523   Thumb Code     0  rt_memclr_w.o(.text)
    __rt_memclr_w                            0x08036523   Thumb Code    78  rt_memclr_w.o(.text)
    _memset_w                                0x08036527   Thumb Code     0  rt_memclr_w.o(.text)
    strncpy                                  0x08036571   Thumb Code    86  strncpy.o(.text)
    strcmp                                   0x080365c9   Thumb Code   128  strcmpv7m.o(.text)
    asctime                                  0x08036649   Thumb Code     6  asctime.o(.text)
    localtime                                0x08036655   Thumb Code     6  localtime.o(.text)
    mktime                                   0x0803669f   Thumb Code   352  mktime.o(.text)
    __use_two_region_memory                  0x08036809   Thumb Code     2  heapauxi.o(.text)
    __rt_heap_escrow$2region                 0x0803680b   Thumb Code     2  heapauxi.o(.text)
    __rt_heap_expand$2region                 0x0803680d   Thumb Code     2  heapauxi.o(.text)
    __rt_locale                              0x08036811   Thumb Code     8  rt_locale_intlibspace.o(.text)
    __aeabi_errno_addr                       0x08036819   Thumb Code     8  rt_errno_addr_intlibspace.o(.text)
    __errno$intlibspace                      0x08036819   Thumb Code     0  rt_errno_addr_intlibspace.o(.text)
    __rt_errno_addr$intlibspace              0x08036819   Thumb Code     0  rt_errno_addr_intlibspace.o(.text)
    __read_errno                             0x08036821   Thumb Code    10  _rserrno.o(.text)
    __set_errno                              0x0803682b   Thumb Code    12  _rserrno.o(.text)
    _printf_int_common                       0x08036837   Thumb Code   178  _printf_intcommon.o(.text)
    __lib_sel_fp_printf                      0x080368e9   Thumb Code     2  _printf_fp_dec.o(.text)
    _printf_fp_dec_real                      0x08036a97   Thumb Code   620  _printf_fp_dec.o(.text)
    _printf_char_common                      0x08036d0f   Thumb Code    32  _printf_char_common.o(.text)
    _sputc                                   0x08036d35   Thumb Code    10  _sputc.o(.text)
    _printf_cs_common                        0x08036d3f   Thumb Code    20  _printf_char.o(.text)
    _printf_char                             0x08036d53   Thumb Code    16  _printf_char.o(.text)
    _printf_string                           0x08036d63   Thumb Code     8  _printf_char.o(.text)
    __strtod_int                             0x08036da9   Thumb Code    88  strtod.o(.text)
    strtol                                   0x08036e0d   Thumb Code   112  strtol.o(.text)
    _asctime_r                               0x08036e7d   Thumb Code    74  asctime_internal.o(.text)
    _n$asctime_r                             0x08036e7d   Thumb Code     0  asctime_internal.o(.text)
    _localtime_r                             0x08036ee5   Thumb Code   178  localtime_internal.o(.text)
    _n$localtime_r                           0x08036ee5   Thumb Code     0  localtime_internal.o(.text)
    __user_libspace                          0x08036f9d   Thumb Code     8  libspace.o(.text)
    __user_perproc_libspace                  0x08036f9d   Thumb Code     0  libspace.o(.text)
    __user_perthread_libspace                0x08036f9d   Thumb Code     0  libspace.o(.text)
    _ll_udiv10                               0x08036fa5   Thumb Code   138  lludiv10.o(.text)
    isspace                                  0x0803702f   Thumb Code    18  isspace.o(.text)
    sprintf                                  0x08037041   Thumb Code    38  sprintf.o(.text)
    _printf_fp_infnan                        0x0803706d   Thumb Code   112  _printf_fp_infnan.o(.text)
    _sgetc                                   0x080370ed   Thumb Code    30  _sgetc.o(.text)
    _sbackspace                              0x0803710b   Thumb Code    34  _sgetc.o(.text)
    _strtoul                                 0x0803712d   Thumb Code   158  _strtoul.o(.text)
    _btod_etento                             0x080371cd   Thumb Code   216  bigflt0.o(.text)
    __user_setup_stackheap                   0x080372a9   Thumb Code    74  sys_stackheap_outer.o(.text)
    _printf_truncate_signed                  0x080372f3   Thumb Code    18  _printf_truncate.o(.text)
    _printf_truncate_unsigned                0x08037305   Thumb Code    18  _printf_truncate.o(.text)
    _printf_charcount                        0x08037317   Thumb Code    40  _printf_charcount.o(.text)
    _printf_wctomb                           0x08037341   Thumb Code   182  _printf_wctomb.o(.text)
    _printf_longlong_dec                     0x080373fd   Thumb Code   108  _printf_longlong_dec.o(.text)
    _printf_longlong_oct                     0x08037479   Thumb Code    68  _printf_oct_int_ll.o(.text)
    _printf_int_oct                          0x080374bd   Thumb Code    24  _printf_oct_int_ll.o(.text)
    _printf_ll_oct                           0x080374d5   Thumb Code    12  _printf_oct_int_ll.o(.text)
    _chval                                   0x080374e9   Thumb Code    28  _chval.o(.text)
    _scanf_really_real                       0x08037701   Thumb Code   668  scanf_fp.o(.text)
    exit                                     0x080379a9   Thumb Code    12  exit.o(.text)
    _printf_fp_hex_real                      0x080379b5   Thumb Code   754  _printf_fp_hex.o(.text)
    _printf_lcs_common                       0x08037cb1   Thumb Code    20  _printf_wchar.o(.text)
    _printf_wchar                            0x08037cc5   Thumb Code    16  _printf_wchar.o(.text)
    _printf_wstring                          0x08037cd5   Thumb Code     8  _printf_wchar.o(.text)
    _wcrtomb                                 0x08037cdd   Thumb Code    64  _wcrtomb.o(.text)
    _scanf_really_hex_real                   0x08037d1d   Thumb Code   778  scanf_hexfp.o(.text)
    _scanf_really_infnan                     0x08038035   Thumb Code   292  scanf_infnan.o(.text)
    _sys_exit                                0x08038169   Thumb Code     8  sys_exit.o(.text)
    __I$use$semihosting                      0x08038175   Thumb Code     0  use_no_semi.o(.text)
    __use_no_semihosting_swi                 0x08038175   Thumb Code     2  use_no_semi.o(.text)
    __aeabi_llsl                             0x08038177   Thumb Code     0  llshl.o(.text)
    __semihosting_library_function           0x08038177   Thumb Code     0  indicate_semi.o(.text)
    _ll_shift_l                              0x08038177   Thumb Code    38  llshl.o(.text)
    _btod_d2e                                0x0803819d   Thumb Code    62  btod.o(CL$$btod_d2e)
    _d2e_denorm_low                          0x080381db   Thumb Code    70  btod.o(CL$$btod_d2e_denorm_low)
    _d2e_norm_op1                            0x08038221   Thumb Code    96  btod.o(CL$$btod_d2e_norm_op1)
    __btod_div_common                        0x08038281   Thumb Code   696  btod.o(CL$$btod_div_common)
    _e2d                                     0x080385b9   Thumb Code    80  btod.o(CL$$btod_e2d)
    _e2e                                     0x0803860d   Thumb Code   198  btod.o(CL$$btod_e2e)
    _btod_ediv                               0x080386d3   Thumb Code    40  btod.o(CL$$btod_ediv)
    _btod_edivd                              0x080386fb   Thumb Code    40  btod.o(CL$$btod_edivd)
    _btod_emul                               0x08038723   Thumb Code    40  btod.o(CL$$btod_emul)
    _btod_emuld                              0x0803874b   Thumb Code    40  btod.o(CL$$btod_emuld)
    __btod_mult_common                       0x08038773   Thumb Code   580  btod.o(CL$$btod_mult_common)
    __ARM_fpclassify                         0x080389b7   Thumb Code    40  fpclassify.o(i.__ARM_fpclassify)
    __ieee754_rem_pio2                       0x080389e1   Thumb Code   828  rred.o(i.__ieee754_rem_pio2)
    __kernel_cos                             0x08038d69   Thumb Code   230  cos_i.o(i.__kernel_cos)
    __kernel_poly                            0x08038e65   Thumb Code   170  poly.o(i.__kernel_poly)
    __kernel_sin                             0x08038f11   Thumb Code   224  sin_i.o(i.__kernel_sin)
    __mathlib_dbl_divzero                    0x08038ffd   Thumb Code    12  dunder.o(i.__mathlib_dbl_divzero)
    __mathlib_dbl_infnan                     0x0803900d   Thumb Code     6  dunder.o(i.__mathlib_dbl_infnan)
    __mathlib_dbl_infnan2                    0x08039013   Thumb Code     4  dunder.o(i.__mathlib_dbl_infnan2)
    __mathlib_dbl_invalid                    0x08039017   Thumb Code    12  dunder.o(i.__mathlib_dbl_invalid)
    __mathlib_dbl_overflow                   0x08039023   Thumb Code    14  dunder.o(i.__mathlib_dbl_overflow)
    __mathlib_dbl_underflow                  0x08039031   Thumb Code    10  dunder.o(i.__mathlib_dbl_underflow)
    __mathlib_narrow                         0x08039041   Thumb Code    16  narrow.o(i.__mathlib_narrow)
    __mathlib_tofloat                        0x08039051   Thumb Code   132  narrow.o(i.__mathlib_tofloat)
    __support_ldexp                          0x080390d9   Thumb Code    22  ldexp.o(i.__support_ldexp)
    _is_digit                                0x080390ef   Thumb Code    14  __printf_wp.o(i._is_digit)
    atof                                     0x080390fd   Thumb Code    42  atof.o(i.atof)
    cos                                      0x08039129   Thumb Code   148  cos.o(i.cos)
    frexp                                    0x080391c5   Thumb Code    80  frexp.o(i.frexp)
    ldexp                                    0x0803921d   Thumb Code   116  ldexp.o(i.ldexp)
    pow                                      0x08039291   Thumb Code  2478  pow.o(i.pow)
    sin                                      0x08039c49   Thumb Code   150  sin.o(i.sin)
    sqrt                                     0x08039ce9   Thumb Code    76  sqrt.o(i.sqrt)
    _get_lc_ctype                            0x08039d35   Thumb Code    44  lc_ctype_c.o(locale$$code)
    _get_lc_numeric                          0x08039d61   Thumb Code    44  lc_numeric_c.o(locale$$code)
    _get_lc_time                             0x08039d8d   Thumb Code    44  lc_time_c.o(locale$$code)
    __aeabi_d2f                              0x08039db9   Thumb Code     0  d2f.o(x$fpl$d2f)
    _d2f                                     0x08039db9   Thumb Code    98  d2f.o(x$fpl$d2f)
    __aeabi_dadd                             0x08039e1d   Thumb Code     0  daddsub_clz.o(x$fpl$dadd)
    _dadd                                    0x08039e1d   Thumb Code   332  daddsub_clz.o(x$fpl$dadd)
    __fpl_dcheck_NaN1                        0x08039f6d   Thumb Code    10  dcheck1.o(x$fpl$dcheck1)
    __fpl_dcmp_Inf                           0x08039f7d   Thumb Code    24  dcmpi.o(x$fpl$dcmpinf)
    __aeabi_ddiv                             0x08039f95   Thumb Code     0  ddiv.o(x$fpl$ddiv)
    _ddiv                                    0x08039f95   Thumb Code   552  ddiv.o(x$fpl$ddiv)
    __aeabi_cdcmpeq                          0x0803a245   Thumb Code     0  deqf.o(x$fpl$deqf)
    _dcmpeq                                  0x0803a245   Thumb Code   120  deqf.o(x$fpl$deqf)
    __aeabi_d2iz                             0x0803a2bd   Thumb Code     0  dfix.o(x$fpl$dfix)
    _dfix                                    0x0803a2bd   Thumb Code    94  dfix.o(x$fpl$dfix)
    __aeabi_d2uiz                            0x0803a31d   Thumb Code     0  dfixu.o(x$fpl$dfixu)
    _dfixu                                   0x0803a31d   Thumb Code    90  dfixu.o(x$fpl$dfixu)
    __aeabi_i2d                              0x0803a377   Thumb Code     0  dflt_clz.o(x$fpl$dflt)
    _dflt                                    0x0803a377   Thumb Code    46  dflt_clz.o(x$fpl$dflt)
    __aeabi_ui2d                             0x0803a3a5   Thumb Code     0  dflt_clz.o(x$fpl$dfltu)
    _dfltu                                   0x0803a3a5   Thumb Code    38  dflt_clz.o(x$fpl$dfltu)
    __aeabi_cdcmple                          0x0803a3cd   Thumb Code     0  dleqf.o(x$fpl$dleqf)
    _dcmple                                  0x0803a3cd   Thumb Code   120  dleqf.o(x$fpl$dleqf)
    __fpl_dcmple_InfNaN                      0x0803a42f   Thumb Code     0  dleqf.o(x$fpl$dleqf)
    __aeabi_dmul                             0x0803a445   Thumb Code     0  dmul.o(x$fpl$dmul)
    _dmul                                    0x0803a445   Thumb Code   332  dmul.o(x$fpl$dmul)
    __fpl_dnaninf                            0x0803a599   Thumb Code   156  dnaninf.o(x$fpl$dnaninf)
    __fpl_dretinf                            0x0803a635   Thumb Code    12  dretinf.o(x$fpl$dretinf)
    __aeabi_cdrcmple                         0x0803a641   Thumb Code     0  drleqf.o(x$fpl$drleqf)
    _drcmple                                 0x0803a641   Thumb Code   108  drleqf.o(x$fpl$drleqf)
    __aeabi_drsub                            0x0803a6ad   Thumb Code     0  daddsub_clz.o(x$fpl$drsb)
    _drsb                                    0x0803a6ad   Thumb Code    22  daddsub_clz.o(x$fpl$drsb)
    _dsqrt                                   0x0803a6c5   Thumb Code   456  dsqrt_noumaal.o(x$fpl$dsqrt)
    __aeabi_dsub                             0x0803a891   Thumb Code     0  daddsub_clz.o(x$fpl$dsub)
    _dsub                                    0x0803a891   Thumb Code   464  daddsub_clz.o(x$fpl$dsub)
    __aeabi_f2d                              0x0803aa65   Thumb Code     0  f2d.o(x$fpl$f2d)
    _f2d                                     0x0803aa65   Thumb Code    86  f2d.o(x$fpl$f2d)
    __aeabi_fadd                             0x0803aabd   Thumb Code     0  faddsub_clz.o(x$fpl$fadd)
    _fadd                                    0x0803aabd   Thumb Code   196  faddsub_clz.o(x$fpl$fadd)
    __fpl_fcheck_NaN1                        0x0803ab81   Thumb Code     6  fcheck1.o(x$fpl$fcheck1)
    __fpl_fcmp_Inf                           0x0803ab8d   Thumb Code    24  fcmpi.o(x$fpl$fcmpinf)
    __aeabi_f2iz                             0x0803aba5   Thumb Code     0  ffix.o(x$fpl$ffix)
    _ffix                                    0x0803aba5   Thumb Code    54  ffix.o(x$fpl$ffix)
    __aeabi_f2uiz                            0x0803abdd   Thumb Code     0  ffixu.o(x$fpl$ffixu)
    _ffixu                                   0x0803abdd   Thumb Code    62  ffixu.o(x$fpl$ffixu)
    __aeabi_ui2f                             0x0803ac1d   Thumb Code     0  fflt_clz.o(x$fpl$ffltu)
    _ffltu                                   0x0803ac1d   Thumb Code    38  fflt_clz.o(x$fpl$ffltu)
    __aeabi_cfcmple                          0x0803ac45   Thumb Code     0  fleqf.o(x$fpl$fleqf)
    _fcmple                                  0x0803ac45   Thumb Code   104  fleqf.o(x$fpl$fleqf)
    __fpl_fcmple_InfNaN                      0x0803ac97   Thumb Code     0  fleqf.o(x$fpl$fleqf)
    __aeabi_fmul                             0x0803acad   Thumb Code     0  fmul.o(x$fpl$fmul)
    _fmul                                    0x0803acad   Thumb Code   258  fmul.o(x$fpl$fmul)
    __fpl_fnaninf                            0x0803adaf   Thumb Code   140  fnaninf.o(x$fpl$fnaninf)
    __fpl_fretinf                            0x0803ae3b   Thumb Code    10  fretinf.o(x$fpl$fretinf)
    __aeabi_frsub                            0x0803ae45   Thumb Code     0  faddsub_clz.o(x$fpl$frsb)
    _frsb                                    0x0803ae45   Thumb Code    20  faddsub_clz.o(x$fpl$frsb)
    __aeabi_fsub                             0x0803ae59   Thumb Code     0  faddsub_clz.o(x$fpl$fsub)
    _fsub                                    0x0803ae59   Thumb Code   234  faddsub_clz.o(x$fpl$fsub)
    _printf_fp_dec                           0x0803af43   Thumb Code     4  printf1.o(x$fpl$printf1)
    _printf_fp_hex                           0x0803af47   Thumb Code     4  printf2.o(x$fpl$printf2)
    __fpl_return_NaN                         0x0803af4b   Thumb Code   100  retnan.o(x$fpl$retnan)
    __ARM_scalbn                             0x0803afaf   Thumb Code    92  scalbn.o(x$fpl$scalbn)
    __ARM_scalbnf                            0x0803b00b   Thumb Code    76  scalbnf.o(x$fpl$scalbnf)
    _scanf_real                              0x0803b057   Thumb Code     4  scanf1.o(x$fpl$scanf1)
    _scanf_hex_real                          0x0803b05b   Thumb Code     4  scanf2.o(x$fpl$scanf2)
    _scanf_infnan                            0x0803b05f   Thumb Code     4  scanf2.o(x$fpl$scanf2)
    __fpl_cmpreturn                          0x0803b063   Thumb Code    48  trapv.o(x$fpl$trapveneer)
    FwVer                                    0x0803b092   Data           2  main.o(.constdata)
    __I$use$fp                               0x0803b092   Number         0  usenofp.o(x$fpl$usenofp)
    config_gprs_default                      0x0803b0ba   Data         212  config.o(.constdata)
    config_server_default                    0x0803b18e   Data          74  config.o(.constdata)
    Crc32EthTable                            0x0803b1dc   Data        1024  crc32.o(.constdata)
    mpbCRCHi                                 0x0803b5dc   Data         256  crc16.o(.constdata)
    mpbCRCLo                                 0x0803b6dc   Data         256  crc16.o(.constdata)
    AO_Modem                                 0x0803b7dc   Data           4  modem.o(.constdata)
    AO_ModemParser                           0x0803bd54   Data           4  modem_parser.o(.constdata)
    QF_pwr2Lkup                              0x0803c372   Data          65  qf_pwr2.o(.constdata)
    QF_invPwr2Lkup                           0x0803c3b3   Data          65  qf_pwr2.o(.constdata)
    QF_div8Lkup                              0x0803c3f4   Data          65  qf_pwr2.o(.constdata)
    QEP_reservedEvt_                         0x0803c46e   Data          16  qep.o(.constdata)
    AO_Disk                                  0x0803c4c0   Data           4  disk.o(.constdata)
    DiskSaveConfigEvt                        0x0803c4c4   Data           4  disk.o(.constdata)
    AO_Io                                    0x0803c5e8   Data           4  io.o(.constdata)
    crc_table                                0x0803c63d   Data         256  crc8.o(.constdata)
    AO_Control                               0x0803c740   Data           4  control_new.o(.constdata)
    CtrlRebootEvt                            0x0803c744   Data           4  control_new.o(.constdata)
    AO_GpsParser                             0x0803c8dc   Data           4  nmea_parser.o(.constdata)
    AO_NavFilter                             0x0803c920   Data           4  nav_filter.o(.constdata)
    _monlen                                  0x0803ca68   Data          12  _monlen.o(.constdata)
    __mathlib_zero                           0x0803caa8   Data           8  qnan.o(.constdata)
    Region$$Table$$Base                      0x0803d188   Number         0  anon$$obj.o(Region$$Table)
    Region$$Table$$Limit                     0x0803d1a8   Number         0  anon$$obj.o(Region$$Table)
    __aeabi_HUGE_VAL                         0x0803d1a8   Data           0  fpconst.o(c$$dinf)
    __aeabi_HUGE_VALL                        0x0803d1a8   Data           0  fpconst.o(c$$dinf)
    __aeabi_INFINITY                         0x0803d1a8   Data           0  fpconst.o(c$$dinf)
    __dInf                                   0x0803d1a8   Data           0  fpconst.o(c$$dinf)
    __huge_val                               0x0803d1a8   Data           0  fpconst.o(c$$dinf)
    __ctype                                  0x0803d1bd   Data           0  lc_ctype_c.o(locale$$data)
    watch_flag                               0x20000000   Data           4  main.o(.data)
    QS_tickTime_                             0x20000008   Data           4  bsp.o(.data)
    QS_tickPeriod_                           0x2000000c   Data           4  bsp.o(.data)
    line_num                                 0x20000010   Data           4  bsp.o(.data)
    sms_cmd_tbl                              0x20000014   Data         708  config.o(.data)
    gprs_ptr                                 0x200002dc   Data           4  config.o(.data)
    bCRCHi                                   0x200002e0   Data           1  crc16.o(.data)
    bCRCLo                                   0x200002e1   Data           1  crc16.o(.data)
    GsmState                                 0x200002f6   Data           1  modem.o(.data)
    GprsState                                0x200002f7   Data           1  modem.o(.data)
    ServerState                              0x200002f8   Data           1  modem.o(.data)
    debug_answer                             0x20000300   Data           1  modem.o(.data)
    msg_tbl                                  0x20000308   Data         360  modem_parser.o(.data)
    debug_ptr2                               0x2000047c   Data           4  modem_sim900.o(.data)
    debug_size                               0x20000480   Data           4  modem_sim900.o(.data)
    count                                    0x2000048e   Data           2  modemringbuf.o(.data)
    size                                     0x20000490   Data           2  modemringbuf.o(.data)
    tail                                     0x20000492   Data           2  modemringbuf.o(.data)
    head                                     0x20000494   Data           2  modemringbuf.o(.data)
    debug_ptr                                0x2000049c   Data           4  qa_fifo.o(.data)
    QF_maxPool_                              0x200004a0   Data           4  qf_pool.o(.data)
    QF_subscrList_                           0x200004a4   Data           4  qf_psini.o(.data)
    QF_maxSignal_                            0x200004a8   Data           4  qf_psini.o(.data)
    QK_currPrio_                             0x200004ac   Data           1  qk.o(.data)
    QK_intNest_                              0x200004ad   Data           1  qk.o(.data)
    QK_ceilingPrio_                          0x200004ae   Data           1  qk_mutex.o(.data)
    debug_spi                                0x200004b5   Data           1  fm25cl64.o(.data)
    debug_id                                 0x200004c2   Data           1  disk.o(.data)
    debug_din                                0x200004c3   Data           1  disk.o(.data)
    write_point_angle_evt_flag               0x200004c4   Data           4  disk.o(.data)
    debug_data_arr                           0x200004c8   Data           8  disk.o(.data)
    RS485State                               0x200004dc   Data           1  io.o(.data)
    polling_sensor                           0x200004de   Data           1  io.o(.data)
    sensors_in_config                        0x200004df   Data           1  io.o(.data)
    debug_dev                                0x200004e0   Data           1  io.o(.data)
    TxIndex                                  0x200004e4   Data           4  io.o(.data)
    RxIndex                                  0x200004e8   Data           4  io.o(.data)
    fin_counter                              0x200004fc   Data           8  io.o(.data)
    ind_flag                                 0x20000518   Data           4  ledindicator.o(.data)
    fm_ptr                                   0x2000051c   Data           4  control_new.o(.data)
    Epsilon_cmd_table                        0x20000544   Data          16  epsilon.o(.data)
    debug_ch                                 0x2000055c   Data           1  nmea_parser.o(.data)
    dbg_field                                0x2000055d   Data           1  nmea_parser.o(.data)
    point_ptr                                0x20000574   Data           4  nmea_parser.o(.data)
    debug_sensor_id                          0x20000580   Data           1  nav_filter.o(.data)
    not_event_debug_card_id                  0x20000590   Data           5  nav_filter.o(.data)
    RF10_cmd_table                           0x200005b0   Data          24  rf10.o(.data)
    TL10_cmd_table                           0x200005c8   Data           8  tl10.o(.data)
    ModemParserQueueSto                      0x20000688   Data          40  main.o(.bss)
    SysInfo                                  0x200008a4   Data          73  main.o(.bss)
    conf_nav_filter                          0x200010ed   Data           9  config.o(.bss)
    conf_rs485_sensor                        0x200010f6   Data          36  config.o(.bss)
    conf                                     0x2000111a   Data         368  config.o(.bss)
    send_sms                                 0x200012c8   Data         170  modem.o(.bss)
    parser_sms_answer                        0x200014fc   Data          12  modem.o(.bss)
    modem_state_history                      0x20001508   Data          20  modem.o(.bss)
    modem_ring_buf                           0x20001b0a   Data        2000  modem_parser.o(.bss)
    mpar                                     0x2000249c   Data         244  modem_parser.o(.bss)
    QF_active_                               0x200025f4   Data         132  qf_act.o(.bss)
    QF_pool_                                 0x20002678   Data          60  qf_pool.o(.bss)
    QF_timeEvtHead_                          0x200026b4   Data          32  qf_tick.o(.bss)
    QK_readySet_                             0x200026d4   Data           9  qk.o(.bss)
    QS_priv_                                 0x200026e0   Data          64  qs.o(.bss)
    send_pack_buf                            0x200033ec   Data        1000  disk.o(.bss)
    flash_disk_image                         0x200037d4   Data          10  disk.o(.bss)
    points_ram_buf                           0x200037de   Data        3091  disk.o(.bss)
    dbg_sens                                 0x20004985   Data          54  disk.o(.bss)
    IoData                                   0x200049bc   Data          42  io.o(.bss)
    rs485_rx_buf                             0x20004aaa   Data          50  io.o(.bss)
    point1                                   0x20005170   Data          56  nmea_parser.o(.bss)
    point2                                   0x200051a8   Data          56  nmea_parser.o(.bss)
    gps_rx_buf                               0x20005258   Data         500  nmea_parser.o(.bss)
    field_buf                                0x20005470   Data          25  nmea_parser.o(.bss)
    nav_dbg_sens                             0x2000576d   Data          54  nav_filter.o(.bss)
    __libspace_start                         0x20005814   Data          96  libspace.o(.bss)
    __temporary_stack_top$libspace           0x20005874   Data           0  libspace.o(.bss)



==============================================================================

Memory Map of the image

  Image Entry point : 0x08021131

  Load Region LR_IROM1 (Base: 0x08021000, Size: 0x0001ca30, Max: 0x00040000, ABSOLUTE, COMPRESSED[0x0001c6ec])

    Execution Region ER_IROM1 (Base: 0x08021000, Size: 0x0001c45c, Max: 0x00040000, ABSOLUTE)

    Base Addr    Size         Type   Attr      Idx    E Section Name        Object

    0x08021000   0x00000130   Data   RO            3    RESET               startup_stm32f10x_hd.o
    0x08021130   0x00000008   Code   RO         1962  * !!!main             c_w.l(__main.o)
    0x08021138   0x00000034   Code   RO         2450    !!!scatter          c_w.l(__scatter.o)
    0x0802116c   0x0000005a   Code   RO         2448    !!dczerorl2         c_w.l(__dczerorl2.o)
    0x080211c6   0x00000002   PAD
    0x080211c8   0x0000001c   Code   RO         2452    !!handler_zi        c_w.l(__scatter_zi.o)
    0x080211e4   0x00000000   Code   RO         1921    .ARM.Collect$$_printf_percent$$00000000  c_w.l(_printf_percent.o)
    0x080211e4   0x00000006   Code   RO         2286    .ARM.Collect$$_printf_percent$$00000001  c_w.l(_printf_n.o)
    0x080211ea   0x00000006   Code   RO         2287    .ARM.Collect$$_printf_percent$$00000002  c_w.l(_printf_p.o)
    0x080211f0   0x00000006   Code   RO         1920    .ARM.Collect$$_printf_percent$$00000003  c_w.l(_printf_f.o)
    0x080211f6   0x00000006   Code   RO         2290    .ARM.Collect$$_printf_percent$$00000004  c_w.l(_printf_e.o)
    0x080211fc   0x00000006   Code   RO         2291    .ARM.Collect$$_printf_percent$$00000005  c_w.l(_printf_g.o)
    0x08021202   0x00000006   Code   RO         2292    .ARM.Collect$$_printf_percent$$00000006  c_w.l(_printf_a.o)
    0x08021208   0x0000000a   Code   RO         2296    .ARM.Collect$$_printf_percent$$00000007  c_w.l(_printf_ll.o)
    0x08021212   0x00000006   Code   RO         2289    .ARM.Collect$$_printf_percent$$00000008  c_w.l(_printf_i.o)
    0x08021218   0x00000006   Code   RO         1918    .ARM.Collect$$_printf_percent$$00000009  c_w.l(_printf_d.o)
    0x0802121e   0x00000006   Code   RO         1919    .ARM.Collect$$_printf_percent$$0000000A  c_w.l(_printf_u.o)
    0x08021224   0x00000006   Code   RO         2288    .ARM.Collect$$_printf_percent$$0000000B  c_w.l(_printf_o.o)
    0x0802122a   0x00000006   Code   RO         1917    .ARM.Collect$$_printf_percent$$0000000C  c_w.l(_printf_x.o)
    0x08021230   0x00000006   Code   RO         2293    .ARM.Collect$$_printf_percent$$0000000D  c_w.l(_printf_lli.o)
    0x08021236   0x00000006   Code   RO         2294    .ARM.Collect$$_printf_percent$$0000000E  c_w.l(_printf_lld.o)
    0x0802123c   0x00000006   Code   RO         2295    .ARM.Collect$$_printf_percent$$0000000F  c_w.l(_printf_llu.o)
    0x08021242   0x00000006   Code   RO         2300    .ARM.Collect$$_printf_percent$$00000010  c_w.l(_printf_llo.o)
    0x08021248   0x00000006   Code   RO         2301    .ARM.Collect$$_printf_percent$$00000011  c_w.l(_printf_llx.o)
    0x0802124e   0x0000000a   Code   RO         2297    .ARM.Collect$$_printf_percent$$00000012  c_w.l(_printf_l.o)
    0x08021258   0x00000006   Code   RO         2285    .ARM.Collect$$_printf_percent$$00000013  c_w.l(_printf_c.o)
    0x0802125e   0x00000006   Code   RO         1916    .ARM.Collect$$_printf_percent$$00000014  c_w.l(_printf_s.o)
    0x08021264   0x00000006   Code   RO         2298    .ARM.Collect$$_printf_percent$$00000015  c_w.l(_printf_lc.o)
    0x0802126a   0x00000006   Code   RO         2299    .ARM.Collect$$_printf_percent$$00000016  c_w.l(_printf_ls.o)
    0x08021270   0x00000004   Code   RO         2087    .ARM.Collect$$_printf_percent$$00000017  c_w.l(_printf_percent_end.o)
    0x08021274   0x00000002   Code   RO         2315    .ARM.Collect$$libinit$$00000000  c_w.l(libinit.o)
    0x08021276   0x00000000   Code   RO         2216    .ARM.Collect$$libinit$$00000002  c_w.l(libinit2.o)
    0x08021276   0x00000000   Code   RO         2218    .ARM.Collect$$libinit$$00000004  c_w.l(libinit2.o)
    0x08021276   0x00000000   Code   RO         2221    .ARM.Collect$$libinit$$0000000A  c_w.l(libinit2.o)
    0x08021276   0x00000000   Code   RO         2223    .ARM.Collect$$libinit$$0000000C  c_w.l(libinit2.o)
    0x08021276   0x00000000   Code   RO         2225    .ARM.Collect$$libinit$$0000000E  c_w.l(libinit2.o)
    0x08021276   0x00000006   Code   RO         2226    .ARM.Collect$$libinit$$0000000F  c_w.l(libinit2.o)
    0x0802127c   0x00000000   Code   RO         2228    .ARM.Collect$$libinit$$00000011  c_w.l(libinit2.o)
    0x0802127c   0x0000000c   Code   RO         2229    .ARM.Collect$$libinit$$00000012  c_w.l(libinit2.o)
    0x08021288   0x00000000   Code   RO         2230    .ARM.Collect$$libinit$$00000013  c_w.l(libinit2.o)
    0x08021288   0x00000000   Code   RO         2232    .ARM.Collect$$libinit$$00000015  c_w.l(libinit2.o)
    0x08021288   0x0000000a   Code   RO         2233    .ARM.Collect$$libinit$$00000016  c_w.l(libinit2.o)
    0x08021292   0x00000000   Code   RO         2234    .ARM.Collect$$libinit$$00000017  c_w.l(libinit2.o)
    0x08021292   0x0000000a   Code   RO         2235    .ARM.Collect$$libinit$$00000018  c_w.l(libinit2.o)
    0x0802129c   0x00000000   Code   RO         2236    .ARM.Collect$$libinit$$00000019  c_w.l(libinit2.o)
    0x0802129c   0x00000000   Code   RO         2238    .ARM.Collect$$libinit$$0000001B  c_w.l(libinit2.o)
    0x0802129c   0x00000000   Code   RO         2240    .ARM.Collect$$libinit$$0000001D  c_w.l(libinit2.o)
    0x0802129c   0x00000000   Code   RO         2242    .ARM.Collect$$libinit$$0000001F  c_w.l(libinit2.o)
    0x0802129c   0x00000000   Code   RO         2244    .ARM.Collect$$libinit$$00000021  c_w.l(libinit2.o)
    0x0802129c   0x00000000   Code   RO         2246    .ARM.Collect$$libinit$$00000023  c_w.l(libinit2.o)
    0x0802129c   0x00000000   Code   RO         2248    .ARM.Collect$$libinit$$00000025  c_w.l(libinit2.o)
    0x0802129c   0x00000000   Code   RO         2252    .ARM.Collect$$libinit$$0000002C  c_w.l(libinit2.o)
    0x0802129c   0x00000000   Code   RO         2254    .ARM.Collect$$libinit$$0000002E  c_w.l(libinit2.o)
    0x0802129c   0x00000000   Code   RO         2256    .ARM.Collect$$libinit$$00000030  c_w.l(libinit2.o)
    0x0802129c   0x00000000   Code   RO         2258    .ARM.Collect$$libinit$$00000032  c_w.l(libinit2.o)
    0x0802129c   0x00000002   Code   RO         2259    .ARM.Collect$$libinit$$00000033  c_w.l(libinit2.o)
    0x0802129e   0x00000002   Code   RO         2394    .ARM.Collect$$libshutdown$$00000000  c_w.l(libshutdown.o)
    0x080212a0   0x00000000   Code   RO         2413    .ARM.Collect$$libshutdown$$00000003  c_w.l(libshutdown2.o)
    0x080212a0   0x00000000   Code   RO         2416    .ARM.Collect$$libshutdown$$00000006  c_w.l(libshutdown2.o)
    0x080212a0   0x00000000   Code   RO         2419    .ARM.Collect$$libshutdown$$00000009  c_w.l(libshutdown2.o)
    0x080212a0   0x00000000   Code   RO         2421    .ARM.Collect$$libshutdown$$0000000B  c_w.l(libshutdown2.o)
    0x080212a0   0x00000000   Code   RO         2424    .ARM.Collect$$libshutdown$$0000000E  c_w.l(libshutdown2.o)
    0x080212a0   0x00000002   Code   RO         2425    .ARM.Collect$$libshutdown$$0000000F  c_w.l(libshutdown2.o)
    0x080212a2   0x00000000   Code   RO         2064    .ARM.Collect$$rtentry$$00000000  c_w.l(__rtentry.o)
    0x080212a2   0x00000000   Code   RO         2156    .ARM.Collect$$rtentry$$00000002  c_w.l(__rtentry2.o)
    0x080212a2   0x00000006   Code   RO         2168    .ARM.Collect$$rtentry$$00000004  c_w.l(__rtentry4.o)
    0x080212a8   0x00000000   Code   RO         2158    .ARM.Collect$$rtentry$$00000009  c_w.l(__rtentry2.o)
    0x080212a8   0x00000004   Code   RO         2159    .ARM.Collect$$rtentry$$0000000A  c_w.l(__rtentry2.o)
    0x080212ac   0x00000000   Code   RO         2161    .ARM.Collect$$rtentry$$0000000C  c_w.l(__rtentry2.o)
    0x080212ac   0x00000008   Code   RO         2162    .ARM.Collect$$rtentry$$0000000D  c_w.l(__rtentry2.o)
    0x080212b4   0x00000002   Code   RO         2326    .ARM.Collect$$rtexit$$00000000  c_w.l(rtexit.o)
    0x080212b6   0x00000000   Code   RO         2357    .ARM.Collect$$rtexit$$00000002  c_w.l(rtexit2.o)
    0x080212b6   0x00000004   Code   RO         2358    .ARM.Collect$$rtexit$$00000003  c_w.l(rtexit2.o)
    0x080212ba   0x00000006   Code   RO         2359    .ARM.Collect$$rtexit$$00000004  c_w.l(rtexit2.o)
    0x080212c0   0x00000048   Code   RO            4    .text               startup_stm32f10x_hd.o
    0x08021308   0x00000200   Code   RO           10    .text               main.o
    0x08021508   0x000004a4   Code   RO          197    .text               bsp.o
    0x080219ac   0x00000adc   Code   RO          235    .text               config.o
    0x08022488   0x000000ec   Code   RO          294    .text               system_stm32f10x.o
    0x08022574   0x00000028   Code   RO          332    .text               crc32.o
    0x0802259c   0x00000060   Code   RO          347    .text               crc16.o
    0x080225fc   0x00000068   Code   RO          363    .text               qk_port.o
    0x08022664   0x000001d4   Code   RO          378    .text               stm32f10x_dma.o
    0x08022838   0x00000418   Code   RO          390    .text               stm32f10x_flash.o
    0x08022c50   0x0000026c   Code   RO          402    .text               stm32f10x_gpio.o
    0x08022ebc   0x000002f0   Code   RO          429    .text               stm32f10x_rcc.o
    0x080231ac   0x000002ac   Code   RO          443    .text               stm32f10x_spi.o
    0x08023458   0x000009be   Code   RO          455    .text               stm32f10x_tim.o
    0x08023e16   0x00000002   PAD
    0x08023e18   0x00000328   Code   RO          467    .text               stm32f10x_usart.o
    0x08024140   0x000000b8   Code   RO          479    .text               misc.o
    0x080241f8   0x000000fc   Code   RO          491    .text               stm32f10x_exti.o
    0x080242f4   0x00004550   Code   RO          503    .text               modem.o
    0x08028844   0x00000a94   Code   RO          548    .text               modem_parser.o
    0x080292d8   0x00001d98   Code   RO          577    .text               modem_sim900.o
    0x0802b070   0x0000009c   Code   RO          604    .text               modemringbuf.o
    0x0802b10c   0x00000014   Code   RO          628    .text               qa_ctor.o
    0x0802b120   0x00000054   Code   RO          649    .text               qa_defer.o
    0x0802b174   0x0000017c   Code   RO          663    .text               qa_fifo.o
    0x0802b2f0   0x0000013c   Code   RO          679    .text               qa_get_.o
    0x0802b42c   0x000000e8   Code   RO          693    .text               qa_lifo.o
    0x0802b514   0x000000a0   Code   RO          707    .text               qa_sub.o
    0x0802b5b4   0x0000010c   Code   RO          749    .text               qeq_fifo.o
    0x0802b6c0   0x000000d8   Code   RO          763    .text               qeq_get.o
    0x0802b798   0x00000050   Code   RO          777    .text               qeq_init.o
    0x0802b7e8   0x000000cc   Code   RO          803    .text               qf_act.o
    0x0802b8b4   0x000000ac   Code   RO          828    .text               qf_gc.o
    0x0802b960   0x000000a8   Code   RO          848    .text               qf_new.o
    0x0802ba08   0x00000064   Code   RO          862    .text               qf_pool.o
    0x0802ba6c   0x0000000c   Code   RO          883    .text               qf_psini.o
    0x0802ba78   0x000000d8   Code   RO          902    .text               qf_pspub.o
    0x0802bb50   0x00000164   Code   RO          935    .text               qf_tick.o
    0x0802bcb4   0x000000f4   Code   RO          968    .text               qmp_get.o
    0x0802bda8   0x000000b4   Code   RO          982    .text               qmp_init.o
    0x0802be5c   0x0000007c   Code   RO          996    .text               qmp_put.o
    0x0802bed8   0x000000a8   Code   RO         1010    .text               qte_arm.o
    0x0802bf80   0x00000034   Code   RO         1024    .text               qte_ctor.o
    0x0802bfb4   0x0000009c   Code   RO         1050    .text               qte_darm.o
    0x0802c050   0x000000a0   Code   RO         1076    .text               qk.o
    0x0802c0f0   0x00000110   Code   RO         1131    .text               qk_sched.o
    0x0802c200   0x00000388   Code   RO         1143    .text               qs.o
    0x0802c588   0x00000260   Code   RO         1166    .text               qs_.o
    0x0802c7e8   0x0000002c   Code   RO         1190    .text               qs_byte.o
    0x0802c814   0x000000c8   Code   RO         1202    .text               qs_dict.o
    0x0802c8dc   0x000000b4   Code   RO         1250    .text               qs_str.o
    0x0802c990   0x00000208   Code   RO         1280    .text               qfsm_dis.o
    0x0802cb98   0x000000d0   Code   RO         1298    .text               qfsm_ini.o
    0x0802cc68   0x00000520   Code   RO         1312    .text               qhsm_dis.o
    0x0802d188   0x00000158   Code   RO         1340    .text               qhsm_ini.o
    0x0802d2e0   0x00000004   Code   RO         1354    .text               qhsm_top.o
    0x0802d2e4   0x00000254   Code   RO         1403    .text               parsersms.o
    0x0802d538   0x00000048   Code   RO         1425    .text               bytestream.o
    0x0802d580   0x00000090   Code   RO         1440    .text               memory_spi.o
    0x0802d610   0x00000678   Code   RO         1455    .text               at45db.o
    0x0802dc88   0x00000450   Code   RO         1476    .text               fm25cl64.o
    0x0802e0d8   0x00000530   Code   RO         1494    .text               framringbuf.o
    0x0802e608   0x00002184   Code   RO         1525    .text               disk.o
    0x0803078c   0x00000958   Code   RO         1571    .text               io.o
    0x080310e4   0x00000020   Code   RO         1604    .text               crc8.o
    0x08031104   0x000005e0   Code   RO         1619    .text               ledindicator.o
    0x080316e4   0x00001648   Code   RO         1638    .text               control_new.o
    0x08032d2c   0x000000f4   Code   RO         1666    .text               epsilon.o
    0x08032e20   0x000014f0   Code   RO         1710    .text               nmea_parser.o
    0x08034310   0x000017b8   Code   RO         1749    .text               nav_filter.o
    0x08035ac8   0x000000a0   Code   RO         1775    .text               gps_ring_buf.o
    0x08035b68   0x00000180   Code   RO         1792    .text               rf10.o
    0x08035ce8   0x000000dc   Code   RO         1818    .text               tl10.o
    0x08035dc4   0x0000002e   Code   RO         1845    .text               crc16_teltonika.o
    0x08035df2   0x00000002   PAD
    0x08035df4   0x00000010   Code   RO         1859    .text               c_w.l(rt_ctype_table.o)
    0x08035e04   0x0000001e   Code   RO         1861    .text               c_w.l(toupper.o)
    0x08035e22   0x00000002   PAD
    0x08035e24   0x0000002c   Code   RO         1863    .text               c_w.l(__2sprintf.o)
    0x08035e50   0x0000004e   Code   RO         1869    .text               c_w.l(_printf_pad.o)
    0x08035e9e   0x00000052   Code   RO         1871    .text               c_w.l(_printf_str.o)
    0x08035ef0   0x00000078   Code   RO         1873    .text               c_w.l(_printf_dec.o)
    0x08035f68   0x00000094   Code   RO         1893    .text               c_w.l(_printf_hex_int_ll_ptr.o)
    0x08035ffc   0x00000188   Code   RO         1913    .text               c_w.l(__printf_flags_ss_wp.o)
    0x08036184   0x0000001a   Code   RO         1922    .text               c_w.l(atoi.o)
    0x0803619e   0x00000014   Code   RO         1924    .text               c_w.l(strchr.o)
    0x080361b2   0x00000024   Code   RO         1926    .text               c_w.l(strstr.o)
    0x080361d6   0x0000008e   Code   RO         1928    .text               c_w.l(strlcpy.o)
    0x08036264   0x00000058   Code   RO         1930    .text               c_w.l(memcmp.o)
    0x080362bc   0x00000048   Code   RO         1932    .text               c_w.l(strcpy.o)
    0x08036304   0x0000003e   Code   RO         1934    .text               c_w.l(strlen.o)
    0x08036342   0x00000096   Code   RO         1936    .text               c_w.l(strncmp.o)
    0x080363d8   0x00000018   Code   RO         1938    .text               c_w.l(strcat.o)
    0x080363f0   0x0000008a   Code   RO         1940    .text               c_w.l(rt_memcpy_v6.o)
    0x0803647a   0x00000064   Code   RO         1942    .text               c_w.l(rt_memcpy_w.o)
    0x080364de   0x00000044   Code   RO         1944    .text               c_w.l(rt_memclr.o)
    0x08036522   0x0000004e   Code   RO         1946    .text               c_w.l(rt_memclr_w.o)
    0x08036570   0x00000056   Code   RO         1948    .text               c_w.l(strncpy.o)
    0x080365c6   0x00000002   PAD
    0x080365c8   0x00000080   Code   RO         1950    .text               c_w.l(strcmpv7m.o)
    0x08036648   0x0000000c   Code   RO         1952    .text               c_w.l(asctime.o)
    0x08036654   0x0000000c   Code   RO         1955    .text               c_w.l(localtime.o)
    0x08036660   0x000001a8   Code   RO         1958    .text               c_w.l(mktime.o)
    0x08036808   0x00000006   Code   RO         1960    .text               c_w.l(heapauxi.o)
    0x0803680e   0x00000002   PAD
    0x08036810   0x00000008   Code   RO         2068    .text               c_w.l(rt_locale_intlibspace.o)
    0x08036818   0x00000008   Code   RO         2073    .text               c_w.l(rt_errno_addr_intlibspace.o)
    0x08036820   0x00000016   Code   RO         2075    .text               c_w.l(_rserrno.o)
    0x08036836   0x000000b2   Code   RO         2077    .text               c_w.l(_printf_intcommon.o)
    0x080368e8   0x0000041a   Code   RO         2079    .text               c_w.l(_printf_fp_dec.o)
    0x08036d02   0x00000002   PAD
    0x08036d04   0x00000030   Code   RO         2081    .text               c_w.l(_printf_char_common.o)
    0x08036d34   0x0000000a   Code   RO         2083    .text               c_w.l(_sputc.o)
    0x08036d3e   0x0000002c   Code   RO         2085    .text               c_w.l(_printf_char.o)
    0x08036d6a   0x00000002   PAD
    0x08036d6c   0x000000a0   Code   RO         2088    .text               c_w.l(strtod.o)
    0x08036e0c   0x00000070   Code   RO         2090    .text               c_w.l(strtol.o)
    0x08036e7c   0x00000068   Code   RO         2096    .text               c_w.l(asctime_internal.o)
    0x08036ee4   0x000000b8   Code   RO         2098    .text               c_w.l(localtime_internal.o)
    0x08036f9c   0x00000008   Code   RO         2152    .text               c_w.l(libspace.o)
    0x08036fa4   0x0000008a   Code   RO         2170    .text               c_w.l(lludiv10.o)
    0x0803702e   0x00000012   Code   RO         2172    .text               c_w.l(isspace.o)
    0x08037040   0x0000002c   Code   RO         2174    .text               c_w.l(sprintf.o)
    0x0803706c   0x00000080   Code   RO         2176    .text               c_w.l(_printf_fp_infnan.o)
    0x080370ec   0x00000040   Code   RO         2180    .text               c_w.l(_sgetc.o)
    0x0803712c   0x0000009e   Code   RO         2182    .text               c_w.l(_strtoul.o)
    0x080371ca   0x00000002   PAD
    0x080371cc   0x000000dc   Code   RO         2184    .text               c_w.l(bigflt0.o)
    0x080372a8   0x0000004a   Code   RO         2268    .text               c_w.l(sys_stackheap_outer.o)
    0x080372f2   0x00000024   Code   RO         2270    .text               c_w.l(_printf_truncate.o)
    0x08037316   0x00000028   Code   RO         2272    .text               c_w.l(_printf_charcount.o)
    0x0803733e   0x00000002   PAD
    0x08037340   0x000000bc   Code   RO         2274    .text               c_w.l(_printf_wctomb.o)
    0x080373fc   0x0000007c   Code   RO         2277    .text               c_w.l(_printf_longlong_dec.o)
    0x08037478   0x00000070   Code   RO         2283    .text               c_w.l(_printf_oct_int_ll.o)
    0x080374e8   0x0000001c   Code   RO         2302    .text               c_w.l(_chval.o)
    0x08037504   0x000004a4   Code   RO         2304    .text               c_w.l(scanf_fp.o)
    0x080379a8   0x0000000c   Code   RO         2306    .text               c_w.l(exit.o)
    0x080379b4   0x000002fc   Code   RO         2328    .text               c_w.l(_printf_fp_hex.o)
    0x08037cb0   0x0000002c   Code   RO         2331    .text               c_w.l(_printf_wchar.o)
    0x08037cdc   0x00000040   Code   RO         2333    .text               c_w.l(_wcrtomb.o)
    0x08037d1c   0x00000318   Code   RO         2365    .text               c_w.l(scanf_hexfp.o)
    0x08038034   0x00000134   Code   RO         2367    .text               c_w.l(scanf_infnan.o)
    0x08038168   0x0000000c   Code   RO         2379    .text               c_w.l(sys_exit.o)
    0x08038174   0x00000002   Code   RO         2381    .text               c_w.l(use_no_semi.o)
    0x08038176   0x00000000   Code   RO         2383    .text               c_w.l(indicate_semi.o)
    0x08038176   0x00000026   Code   RO         2386    .text               c_w.l(llshl.o)
    0x0803819c   0x0000003e   Code   RO         2187    CL$$btod_d2e        c_w.l(btod.o)
    0x080381da   0x00000046   Code   RO         2189    CL$$btod_d2e_denorm_low  c_w.l(btod.o)
    0x08038220   0x00000060   Code   RO         2188    CL$$btod_d2e_norm_op1  c_w.l(btod.o)
    0x08038280   0x00000338   Code   RO         2197    CL$$btod_div_common  c_w.l(btod.o)
    0x080385b8   0x00000054   Code   RO         2195    CL$$btod_e2d        c_w.l(btod.o)
    0x0803860c   0x000000c6   Code   RO         2194    CL$$btod_e2e        c_w.l(btod.o)
    0x080386d2   0x00000028   Code   RO         2191    CL$$btod_ediv       c_w.l(btod.o)
    0x080386fa   0x00000028   Code   RO         2193    CL$$btod_edivd      c_w.l(btod.o)
    0x08038722   0x00000028   Code   RO         2190    CL$$btod_emul       c_w.l(btod.o)
    0x0803874a   0x00000028   Code   RO         2192    CL$$btod_emuld      c_w.l(btod.o)
    0x08038772   0x00000244   Code   RO         2196    CL$$btod_mult_common  c_w.l(btod.o)
    0x080389b6   0x00000028   Code   RO         2136    i.__ARM_fpclassify  m_ws.l(fpclassify.o)
    0x080389de   0x00000002   PAD
    0x080389e0   0x00000388   Code   RO         2141    i.__ieee754_rem_pio2  m_ws.l(rred.o)
    0x08038d68   0x000000fc   Code   RO         2119    i.__kernel_cos      m_ws.l(cos_i.o)
    0x08038e64   0x000000aa   Code   RO         2138    i.__kernel_poly     m_ws.l(poly.o)
    0x08038f0e   0x00000002   PAD
    0x08038f10   0x000000ec   Code   RO         2146    i.__kernel_sin      m_ws.l(sin_i.o)
    0x08038ffc   0x00000010   Code   RO         2122    i.__mathlib_dbl_divzero  m_ws.l(dunder.o)
    0x0803900c   0x00000006   Code   RO         2123    i.__mathlib_dbl_infnan  m_ws.l(dunder.o)
    0x08039012   0x00000004   Code   RO         2124    i.__mathlib_dbl_infnan2  m_ws.l(dunder.o)
    0x08039016   0x0000000c   Code   RO         2125    i.__mathlib_dbl_invalid  m_ws.l(dunder.o)
    0x08039022   0x0000000e   Code   RO         2126    i.__mathlib_dbl_overflow  m_ws.l(dunder.o)
    0x08039030   0x00000010   Code   RO         2128    i.__mathlib_dbl_underflow  m_ws.l(dunder.o)
    0x08039040   0x00000010   Code   RO         2348    i.__mathlib_narrow  m_ws.l(narrow.o)
    0x08039050   0x00000088   Code   RO         2349    i.__mathlib_tofloat  m_ws.l(narrow.o)
    0x080390d8   0x00000016   Code   RO         2396    i.__support_ldexp   m_ws.l(ldexp.o)
    0x080390ee   0x0000000e   Code   RO         1906    i._is_digit         c_w.l(__printf_wp.o)
    0x080390fc   0x0000002a   Code   RO         2027    i.atof              m_ws.l(atof.o)
    0x08039126   0x00000002   PAD
    0x08039128   0x0000009c   Code   RO         2031    i.cos               m_ws.l(cos.o)
    0x080391c4   0x00000058   Code   RO         2376    i.frexp             m_ws.l(frexp.o)
    0x0803921c   0x00000074   Code   RO         2397    i.ldexp             m_ws.l(ldexp.o)
    0x08039290   0x000009b8   Code   RO         2039    i.pow               m_ws.l(pow.o)
    0x08039c48   0x000000a0   Code   RO         2049    i.sin               m_ws.l(sin.o)
    0x08039ce8   0x0000004c   Code   RO         2057    i.sqrt              m_ws.l(sqrt.o)
    0x08039d34   0x0000002c   Code   RO         2093    locale$$code        c_w.l(lc_ctype_c.o)
    0x08039d60   0x0000002c   Code   RO         2210    locale$$code        c_w.l(lc_numeric_c.o)
    0x08039d8c   0x0000002c   Code   RO         2213    locale$$code        c_w.l(lc_time_c.o)
    0x08039db8   0x00000062   Code   RO         1964    x$fpl$d2f           fz_ws.l(d2f.o)
    0x08039e1a   0x00000002   PAD
    0x08039e1c   0x00000150   Code   RO         1966    x$fpl$dadd          fz_ws.l(daddsub_clz.o)
    0x08039f6c   0x00000010   Code   RO         2100    x$fpl$dcheck1       fz_ws.l(dcheck1.o)
    0x08039f7c   0x00000018   Code   RO         2260    x$fpl$dcmpinf       fz_ws.l(dcmpi.o)
    0x08039f94   0x000002b0   Code   RO         1973    x$fpl$ddiv          fz_ws.l(ddiv.o)
    0x0803a244   0x00000078   Code   RO         2373    x$fpl$deqf          fz_ws.l(deqf.o)
    0x0803a2bc   0x0000005e   Code   RO         1976    x$fpl$dfix          fz_ws.l(dfix.o)
    0x0803a31a   0x00000002   PAD
    0x0803a31c   0x0000005a   Code   RO         1980    x$fpl$dfixu         fz_ws.l(dfixu.o)
    0x0803a376   0x0000002e   Code   RO         1985    x$fpl$dflt          fz_ws.l(dflt_clz.o)
    0x0803a3a4   0x00000026   Code   RO         1984    x$fpl$dfltu         fz_ws.l(dflt_clz.o)
    0x0803a3ca   0x00000002   PAD
    0x0803a3cc   0x00000078   Code   RO         2102    x$fpl$dleqf         fz_ws.l(dleqf.o)
    0x0803a444   0x00000154   Code   RO         1990    x$fpl$dmul          fz_ws.l(dmul.o)
    0x0803a598   0x0000009c   Code   RO         2104    x$fpl$dnaninf       fz_ws.l(dnaninf.o)
    0x0803a634   0x0000000c   Code   RO         2106    x$fpl$dretinf       fz_ws.l(dretinf.o)
    0x0803a640   0x0000006c   Code   RO         1992    x$fpl$drleqf        fz_ws.l(drleqf.o)
    0x0803a6ac   0x00000016   Code   RO         1967    x$fpl$drsb          fz_ws.l(daddsub_clz.o)
    0x0803a6c2   0x00000002   PAD
    0x0803a6c4   0x000001cc   Code   RO         2108    x$fpl$dsqrt         fz_ws.l(dsqrt_noumaal.o)
    0x0803a890   0x000001d4   Code   RO         1968    x$fpl$dsub          fz_ws.l(daddsub_clz.o)
    0x0803aa64   0x00000056   Code   RO         1994    x$fpl$f2d           fz_ws.l(f2d.o)
    0x0803aaba   0x00000002   PAD
    0x0803aabc   0x000000c4   Code   RO         1996    x$fpl$fadd          fz_ws.l(faddsub_clz.o)
    0x0803ab80   0x0000000c   Code   RO         2110    x$fpl$fcheck1       fz_ws.l(fcheck1.o)
    0x0803ab8c   0x00000018   Code   RO         2112    x$fpl$fcmpinf       fz_ws.l(fcmpi.o)
    0x0803aba4   0x00000036   Code   RO         2002    x$fpl$ffix          fz_ws.l(ffix.o)
    0x0803abda   0x00000002   PAD
    0x0803abdc   0x0000003e   Code   RO         2006    x$fpl$ffixu         fz_ws.l(ffixu.o)
    0x0803ac1a   0x00000002   PAD
    0x0803ac1c   0x00000026   Code   RO         2010    x$fpl$ffltu         fz_ws.l(fflt_clz.o)
    0x0803ac42   0x00000002   PAD
    0x0803ac44   0x00000068   Code   RO         2016    x$fpl$fleqf         fz_ws.l(fleqf.o)
    0x0803acac   0x00000102   Code   RO         2018    x$fpl$fmul          fz_ws.l(fmul.o)
    0x0803adae   0x0000008c   Code   RO         2114    x$fpl$fnaninf       fz_ws.l(fnaninf.o)
    0x0803ae3a   0x0000000a   Code   RO         2116    x$fpl$fretinf       fz_ws.l(fretinf.o)
    0x0803ae44   0x00000014   Code   RO         1997    x$fpl$frsb          fz_ws.l(faddsub_clz.o)
    0x0803ae58   0x000000ea   Code   RO         1998    x$fpl$fsub          fz_ws.l(faddsub_clz.o)
    0x0803af42   0x00000004   Code   RO         2020    x$fpl$printf1       fz_ws.l(printf1.o)
    0x0803af46   0x00000004   Code   RO         2318    x$fpl$printf2       fz_ws.l(printf2.o)
    0x0803af4a   0x00000064   Code   RO         2264    x$fpl$retnan        fz_ws.l(retnan.o)
    0x0803afae   0x0000005c   Code   RO         2022    x$fpl$scalbn        fz_ws.l(scalbn.o)
    0x0803b00a   0x0000004c   Code   RO         2024    x$fpl$scalbnf       fz_ws.l(scalbnf.o)
    0x0803b056   0x00000004   Code   RO         2266    x$fpl$scanf1        fz_ws.l(scanf1.o)
    0x0803b05a   0x00000008   Code   RO         2342    x$fpl$scanf2        fz_ws.l(scanf2.o)
    0x0803b062   0x00000030   Code   RO         2324    x$fpl$trapveneer    fz_ws.l(trapv.o)
    0x0803b092   0x00000000   Code   RO         2118    x$fpl$usenofp       fz_ws.l(usenofp.o)
    0x0803b092   0x00000002   Data   RO           12    .constdata          main.o
    0x0803b094   0x00000018   Data   RO           13    .constdata          main.o
    0x0803b0ac   0x0000000e   Data   RO          199    .constdata          bsp.o
    0x0803b0ba   0x000000d4   Data   RO          237    .constdata          config.o
    0x0803b18e   0x0000004a   Data   RO          238    .constdata          config.o
    0x0803b1d8   0x00000004   Data   RO          239    .constdata          config.o
    0x0803b1dc   0x00000400   Data   RO          333    .constdata          crc32.o
    0x0803b5dc   0x00000200   Data   RO          348    .constdata          crc16.o
    0x0803b7dc   0x00000562   Data   RO          505    .constdata          modem.o
    0x0803bd3e   0x00000002   PAD
    0x0803bd40   0x000000c3   Data   RO          550    .constdata          modem_parser.o
    0x0803be03   0x00000001   PAD
    0x0803be04   0x000004f9   Data   RO          579    .constdata          modem_sim900.o
    0x0803c2fd   0x00000003   PAD
    0x0803c300   0x00000014   Data   RO          629    .constdata          qa_ctor.o
    0x0803c314   0x00000009   Data   RO          650    .constdata          qa_defer.o
    0x0803c31d   0x00000008   Data   RO          664    .constdata          qa_fifo.o
    0x0803c325   0x00000008   Data   RO          680    .constdata          qa_get_.o
    0x0803c32d   0x00000008   Data   RO          694    .constdata          qa_lifo.o
    0x0803c335   0x00000007   Data   RO          708    .constdata          qa_sub.o
    0x0803c33c   0x00000009   Data   RO          750    .constdata          qeq_fifo.o
    0x0803c345   0x00000008   Data   RO          764    .constdata          qeq_get.o
    0x0803c34d   0x00000007   Data   RO          805    .constdata          qf_act.o
    0x0803c354   0x00000006   Data   RO          829    .constdata          qf_gc.o
    0x0803c35a   0x00000007   Data   RO          849    .constdata          qf_new.o
    0x0803c361   0x00000008   Data   RO          864    .constdata          qf_pool.o
    0x0803c369   0x00000009   Data   RO          903    .constdata          qf_pspub.o
    0x0803c372   0x00000041   Data   RO          916    .constdata          qf_pwr2.o
    0x0803c3b3   0x00000041   Data   RO          917    .constdata          qf_pwr2.o
    0x0803c3f4   0x00000041   Data   RO          918    .constdata          qf_pwr2.o
    0x0803c435   0x00000008   Data   RO          937    .constdata          qf_tick.o
    0x0803c43d   0x00000008   Data   RO          969    .constdata          qmp_get.o
    0x0803c445   0x00000009   Data   RO          983    .constdata          qmp_init.o
    0x0803c44e   0x00000008   Data   RO          997    .constdata          qmp_put.o
    0x0803c456   0x00000008   Data   RO         1011    .constdata          qte_arm.o
    0x0803c45e   0x00000009   Data   RO         1025    .constdata          qte_ctor.o
    0x0803c467   0x00000003   Data   RO         1078    .constdata          qk.o
    0x0803c46a   0x00000003   Data   RO         1145    .constdata          qs.o
    0x0803c46d   0x00000001   PAD
    0x0803c46e   0x00000010   Data   RO         1268    .constdata          qep.o
    0x0803c47e   0x00000009   Data   RO         1281    .constdata          qfsm_dis.o
    0x0803c487   0x00000001   PAD
    0x0803c488   0x00000011   Data   RO         1299    .constdata          qfsm_ini.o
    0x0803c499   0x00000009   Data   RO         1313    .constdata          qhsm_dis.o
    0x0803c4a2   0x00000002   PAD
    0x0803c4a4   0x00000011   Data   RO         1341    .constdata          qhsm_ini.o
    0x0803c4b5   0x00000008   Data   RO         1456    .constdata          at45db.o
    0x0803c4bd   0x00000003   PAD
    0x0803c4c0   0x00000004   Data   RO         1527    .constdata          disk.o
    0x0803c4c4   0x00000004   Data   RO         1528    .constdata          disk.o
    0x0803c4c8   0x0000011e   Data   RO         1529    .constdata          disk.o
    0x0803c5e6   0x00000002   PAD
    0x0803c5e8   0x00000055   Data   RO         1573    .constdata          io.o
    0x0803c63d   0x00000100   Data   RO         1605    .constdata          crc8.o
    0x0803c73d   0x00000003   PAD
    0x0803c740   0x0000019c   Data   RO         1640    .constdata          control_new.o
    0x0803c8dc   0x00000004   Data   RO         1712    .constdata          nmea_parser.o
    0x0803c8e0   0x00000040   Data   RO         1713    .constdata          nmea_parser.o
    0x0803c920   0x00000081   Data   RO         1751    .constdata          nav_filter.o
    0x0803c9a1   0x00000028   Data   RO         1894    .constdata          c_w.l(_printf_hex_int_ll_ptr.o)
    0x0803c9c9   0x00000011   Data   RO         1914    .constdata          c_w.l(__printf_flags_ss_wp.o)
    0x0803c9da   0x00000006   PAD
    0x0803c9e0   0x00000088   Data   RO         2040    .constdata          m_ws.l(pow.o)
    0x0803ca68   0x0000000c   Data   RO         2095    .constdata          c_w.l(_monlen.o)
    0x0803ca74   0x00000004   PAD
    0x0803ca78   0x00000030   Data   RO         2120    .constdata          m_ws.l(cos_i.o)
    0x0803caa8   0x00000008   Data   RO         2140    .constdata          m_ws.l(qnan.o)
    0x0803cab0   0x000000c8   Data   RO         2143    .constdata          m_ws.l(rred.o)
    0x0803cb78   0x00000028   Data   RO         2147    .constdata          m_ws.l(sin_i.o)
    0x0803cba0   0x00000094   Data   RO         2185    .constdata          c_w.l(bigflt0.o)
    0x0803cc34   0x00000008   Data   RO         2275    .constdata          c_w.l(_printf_wctomb.o)
    0x0803cc3c   0x00000026   Data   RO         2329    .constdata          c_w.l(_printf_fp_hex.o)
    0x0803cc62   0x00000002   PAD
    0x0803cc64   0x00000240   Data   RO          240    .conststring        config.o
    0x0803cea4   0x000002e1   Data   RO          552    .conststring        modem_parser.o
    0x0803d185   0x00000003   PAD
    0x0803d188   0x00000020   Data   RO         2446    Region$$Table       anon$$obj.o
    0x0803d1a8   0x00000008   Data   RO         2339    c$$dinf             fz_ws.l(fpconst.o)
    0x0803d1b0   0x00000110   Data   RO         2092    locale$$data        c_w.l(lc_ctype_c.o)
    0x0803d2c0   0x0000001c   Data   RO         2209    locale$$data        c_w.l(lc_numeric_c.o)
    0x0803d2dc   0x00000180   Data   RO         2212    locale$$data        c_w.l(lc_time_c.o)


    Execution Region RW_IRAM1 (Base: 0x20000000, Size: 0x00005e78, Max: 0x0000c000, ABSOLUTE, COMPRESSED[0x00000290])

    Base Addr    Size         Type   Attr      Idx    E Section Name        Object

    0x20000000   0x00000004   Data   RW           14    .data               main.o
    0x20000004   0x00000010   Data   RW          200    .data               bsp.o
    0x20000014   0x000002c4   Data   RW          241    .data               config.o
    0x200002d8   0x00000001   Data   RW          242    .data               config.o
    0x200002d9   0x00000003   PAD
    0x200002dc   0x00000004   Data   RW          243    .data               config.o
    0x200002e0   0x00000002   Data   RW          349    .data               crc16.o
    0x200002e2   0x00000014   Data   RW          430    .data               stm32f10x_rcc.o
    0x200002f6   0x0000000b   Data   RW          506    .data               modem.o
    0x20000301   0x00000003   PAD
    0x20000304   0x0000016c   Data   RW          553    .data               modem_parser.o
    0x20000470   0x0000001a   Data   RW          580    .data               modem_sim900.o
    0x2000048a   0x00000002   PAD
    0x2000048c   0x00000010   Data   RW          605    .data               modemringbuf.o
    0x2000049c   0x00000004   Data   RW          665    .data               qa_fifo.o
    0x200004a0   0x00000004   Data   RW          865    .data               qf_pool.o
    0x200004a4   0x00000008   Data   RW          884    .data               qf_psini.o
    0x200004ac   0x00000001   Data   RW         1079    .data               qk.o
    0x200004ad   0x00000001   Data   RW         1080    .data               qk.o
    0x200004ae   0x00000001   Data   RW         1114    .data               qk_mutex.o
    0x200004af   0x00000001   PAD
    0x200004b0   0x00000004   Data   RW         1405    .data               parsersms.o
    0x200004b4   0x00000001   Data   RW         1457    .data               at45db.o
    0x200004b5   0x00000001   Data   RW         1477    .data               fm25cl64.o
    0x200004b6   0x00000002   PAD
    0x200004b8   0x00000004   Data   RW         1496    .data               framringbuf.o
    0x200004bc   0x00000014   Data   RW         1530    .data               disk.o
    0x200004d0   0x00000034   Data   RW         1575    .data               io.o
    0x20000504   0x00000018   Data   RW         1620    .data               ledindicator.o
    0x2000051c   0x00000004   Data   RW         1641    .data               control_new.o
    0x20000520   0x00000024   Data   RW         1642    .data               control_new.o
    0x20000544   0x00000010   Data   RW         1667    .data               epsilon.o
    0x20000554   0x00000001   Data   RW         1668    .data               epsilon.o
    0x20000555   0x00000003   PAD
    0x20000558   0x00000028   Data   RW         1714    .data               nmea_parser.o
    0x20000580   0x00000020   Data   RW         1752    .data               nav_filter.o
    0x200005a0   0x00000010   Data   RW         1776    .data               gps_ring_buf.o
    0x200005b0   0x00000018   Data   RW         1793    .data               rf10.o
    0x200005c8   0x00000008   Data   RW         1819    .data               tl10.o
    0x200005d0   0x00000001   Data   RW         1820    .data               tl10.o
    0x200005d1   0x00000003   PAD
    0x200005d4   0x00000319   Zero   RW           11    .bss                main.o
    0x200008ed   0x00000800   Zero   RW          198    .bss                bsp.o
    0x200010ed   0x0000019d   Zero   RW          236    .bss                config.o
    0x2000128a   0x00000002   PAD
    0x2000128c   0x00000290   Zero   RW          504    .bss                modem.o
    0x2000151c   0x00001074   Zero   RW          549    .bss                modem_parser.o
    0x20002590   0x00000064   Zero   RW          578    .bss                modem_sim900.o
    0x200025f4   0x00000084   Zero   RW          804    .bss                qf_act.o
    0x20002678   0x0000003c   Zero   RW          863    .bss                qf_pool.o
    0x200026b4   0x00000020   Zero   RW          936    .bss                qf_tick.o
    0x200026d4   0x00000009   Zero   RW         1077    .bss                qk.o
    0x200026dd   0x00000003   PAD
    0x200026e0   0x00000040   Zero   RW         1144    .bss                qs.o
    0x20002720   0x00000032   Zero   RW         1404    .bss                parsersms.o
    0x20002752   0x00000c13   Zero   RW         1495    .bss                framringbuf.o
    0x20003365   0x00000003   PAD
    0x20003368   0x00001653   Zero   RW         1526    .bss                disk.o
    0x200049bb   0x00000001   PAD
    0x200049bc   0x00000120   Zero   RW         1572    .bss                io.o
    0x20004adc   0x00000625   Zero   RW         1639    .bss                control_new.o
    0x20005101   0x00000007   PAD
    0x20005108   0x00000381   Zero   RW         1711    .bss                nmea_parser.o
    0x20005489   0x00000007   PAD
    0x20005490   0x00000313   Zero   RW         1750    .bss                nav_filter.o
    0x200057a3   0x00000044   Zero   RW         1953    .bss                c_w.l(asctime.o)
    0x200057e7   0x00000001   PAD
    0x200057e8   0x0000002c   Zero   RW         1956    .bss                c_w.l(localtime.o)
    0x20005814   0x00000060   Zero   RW         2153    .bss                c_w.l(libspace.o)
    0x20005874   0x00000004   PAD
    0x20005878   0x00000000   Zero   RW            2    HEAP                startup_stm32f10x_hd.o
    0x20005878   0x00000600   Zero   RW            1    STACK               startup_stm32f10x_hd.o


==============================================================================

Image component sizes


      Code (inc. data)   RO Data    RW Data    ZI Data      Debug   Object Name

      1656         20          8          1          0       5737   at45db.o
      1188         56         14         16       2048      29029   bsp.o
        72          0          0          0          0       1437   bytestream.o
      2780        408        866        713        413      18860   config.o
      5704        542        412         40       1573      33932   control_new.o
        96         12        512          2          0       1430   crc16.o
        46          0          0          0          0       1022   crc16_teltonika.o
        40          4       1024          0          0       1011   crc32.o
        32          4        256          0          0        999   crc8.o
      8580       1044        294         20       5715      27173   disk.o
       244          8          0         17          0       2068   epsilon.o
      1104         18          0          1          0       4004   fm25cl64.o
      1328         20          0          4       3091       6757   framringbuf.o
       160          6          0         16          0       1917   gps_ring_buf.o
      2392        202         85         52        288      25495   io.o
      1504        264          0         24          0       5284   ledindicator.o
       512         82         26          4        793     305630   main.o
       144          8          0          0          0        589   memory_spi.o
       184         12          0          0          0       1817   misc.o
     17744       3688       1378         11        656      45072   modem.o
      2708        316        932        364       4212       8040   modem_parser.o
      7576        674       1273         26        100      25543   modem_sim900.o
       156          4          0         16          0       1936   modemringbuf.o
         0          0          0          0          0        916   my_time.o
      6072       1004        129         32        787      12467   nav_filter.o
      5360        212         68         40        897      14040   nmea_parser.o
       596         56          0          4         50       3910   parsersms.o
        20          4         20          0          0       1663   qa_ctor.o
        84          6          9          0          0       1299   qa_defer.o
       380         36          8          4          0       1603   qa_fifo.o
       316         26          8          0          0       1402   qa_get_.o
       232         26          8          0          0       1251   qa_lifo.o
       160         30          7          0          0       1028   qa_sub.o
         0          0         16          0          0        427   qep.o
       268         10          9          0          0       1291   qeq_fifo.o
       216         10          8          0          0       1122   qeq_get.o
        80          4          0          0          0        831   qeq_init.o
       204         14          7          0        132       3747   qf_act.o
       172         16          6          0          0       1028   qf_gc.o
       168         18          7          0          0       1155   qf_new.o
       100         12          8          4         60       1113   qf_pool.o
        12          4          0          8          0        931   qf_psini.o
       216         24          9          0          0       1233   qf_pspub.o
         0          0        195          0          0        533   qf_pwr2.o
       356         12          8          0         32       1710   qf_tick.o
       520         12          9          0          0       1420   qfsm_dis.o
       208         14         17          0          0       1298   qfsm_ini.o
      1312         20          9          0          0       2668   qhsm_dis.o
       344         16         17          0          0       1574   qhsm_ini.o
         4          0          0          0          0        683   qhsm_top.o
       160         10          3          2          9       1884   qk.o
         0          0          0          1          0        430   qk_mutex.o
       104         12          0          0          0        260   qk_port.o
       272         20          0          0          0       1214   qk_sched.o
       244         16          8          0          0       1355   qmp_get.o
       180          8          9          0          0       1254   qmp_init.o
       124          8          8          0          0       1061   qmp_put.o
       904          8          3          0         64      11362   qs.o
       608          6          0          0          0       2662   qs_.o
        44          4          0          0          0        809   qs_byte.o
       200          0          0          0          0       1546   qs_dict.o
       180          4          0          0          0       1232   qs_str.o
       168         12          8          0          0       1136   qte_arm.o
        52          4          9          0          0       1013   qte_ctor.o
       156          4          0          0          0        842   qte_darm.o
       384          4          0         24          0      12668   rf10.o
        72         26        304          0       1536        844   startup_stm32f10x_hd.o
       468         18          0          0          0       3739   stm32f10x_dma.o
       252         12          0          0          0       2203   stm32f10x_exti.o
      1048         22          0          0          0       7750   stm32f10x_flash.o
       620         16          0          0          0       5631   stm32f10x_gpio.o
       752         32          0         20          0       9168   stm32f10x_rcc.o
       684          4          0          0          0       6734   stm32f10x_spi.o
      2494         18          0          0          0      25752   stm32f10x_tim.o
       808         12          0          0          0       8307   stm32f10x_usart.o
       236         18          0          0          0       1097   system_stm32f10x.o
       220          8          0          9          0       1929   tl10.o

    ----------------------------------------------------------------------
     84788       9284       8067       1492      22479     731007   Object Totals
         0          0         32          0          0          0   (incl. Generated)
         4          0         21         17         23          0   (incl. Padding)

    ----------------------------------------------------------------------

      Code (inc. data)   RO Data    RW Data    ZI Data      Debug   Library Member Name

        44          6          0          0          0         84   __2sprintf.o
        90          0          0          0          0          0   __dczerorl2.o
         8          0          0          0          0         68   __main.o
       392          4         17          0          0         92   __printf_flags_ss_wp.o
        14          0          0          0          0         68   __printf_wp.o
         0          0          0          0          0          0   __rtentry.o
        12          0          0          0          0          0   __rtentry2.o
         6          0          0          0          0          0   __rtentry4.o
        52          8          0          0          0          0   __scatter.o
        28          0          0          0          0          0   __scatter_zi.o
        28          0          0          0          0         68   _chval.o
         0          0         12          0          0          0   _monlen.o
         6          0          0          0          0          0   _printf_a.o
         6          0          0          0          0          0   _printf_c.o
        44          0          0          0          0        108   _printf_char.o
        48          6          0          0          0         96   _printf_char_common.o
        40          0          0          0          0         68   _printf_charcount.o
         6          0          0          0          0          0   _printf_d.o
       120         16          0          0          0         92   _printf_dec.o
         6          0          0          0          0          0   _printf_e.o
         6          0          0          0          0          0   _printf_f.o
      1050          0          0          0          0        216   _printf_fp_dec.o
       764         10         38          0          0        100   _printf_fp_hex.o
       128         16          0          0          0         84   _printf_fp_infnan.o
         6          0          0          0          0          0   _printf_g.o
       148          4         40          0          0        160   _printf_hex_int_ll_ptr.o
         6          0          0          0          0          0   _printf_i.o
       178          0          0          0          0         88   _printf_intcommon.o
        10          0          0          0          0          0   _printf_l.o
         6          0          0          0          0          0   _printf_lc.o
        10          0          0          0          0          0   _printf_ll.o
         6          0          0          0          0          0   _printf_lld.o
         6          0          0          0          0          0   _printf_lli.o
         6          0          0          0          0          0   _printf_llo.o
         6          0          0          0          0          0   _printf_llu.o
         6          0          0          0          0          0   _printf_llx.o
       124         16          0          0          0         92   _printf_longlong_dec.o
         6          0          0          0          0          0   _printf_ls.o
         6          0          0          0          0          0   _printf_n.o
         6          0          0          0          0          0   _printf_o.o
       112          8          0          0          0        124   _printf_oct_int_ll.o
         6          0          0          0          0          0   _printf_p.o
        78          0          0          0          0        108   _printf_pad.o
         0          0          0          0          0          0   _printf_percent.o
         4          0          0          0          0          0   _printf_percent_end.o
         6          0          0          0          0          0   _printf_s.o
        82          0          0          0          0         80   _printf_str.o
        36          0          0          0          0         84   _printf_truncate.o
         6          0          0          0          0          0   _printf_u.o
        44          0          0          0          0        108   _printf_wchar.o
       188          6          8          0          0         92   _printf_wctomb.o
         6          0          0          0          0          0   _printf_x.o
        22          0          0          0          0        100   _rserrno.o
        64          0          0          0          0         84   _sgetc.o
        10          0          0          0          0         68   _sputc.o
       158          0          0          0          0         92   _strtoul.o
        64          0          0          0          0         92   _wcrtomb.o
        12          6          0          0         68         68   asctime.o
       104         30          0          0          0         88   asctime_internal.o
        26          0          0          0          0         80   atoi.o
       220          4        148          0          0         96   bigflt0.o
      2074        132          0          0          0        940   btod.o
        12          0          0          0          0         72   exit.o
         6          0          0          0          0        152   heapauxi.o
         0          0          0          0          0          0   indicate_semi.o
        18          0          0          0          0         76   isspace.o
        44         10        272          0          0         76   lc_ctype_c.o
        44         10         28          0          0         76   lc_numeric_c.o
        44         10        384          0          0         76   lc_time_c.o
         2          0          0          0          0          0   libinit.o
        40          0          0          0          0          0   libinit2.o
         2          0          0          0          0          0   libshutdown.o
         2          0          0          0          0          0   libshutdown2.o
         8          4          0          0         96         68   libspace.o
        38          0          0          0          0         68   llshl.o
       138          0          0          0          0         80   lludiv10.o
        12          6          0          0         44         68   localtime.o
       184          6          0          0          0         80   localtime_internal.o
        88          0          0          0          0         76   memcmp.o
       424         10          0          0          0        124   mktime.o
        16          4          0          0          0         76   rt_ctype_table.o
         8          4          0          0          0         68   rt_errno_addr_intlibspace.o
         8          4          0          0          0         68   rt_locale_intlibspace.o
        68          0          0          0          0         68   rt_memclr.o
        78          0          0          0          0         80   rt_memclr_w.o
       138          0          0          0          0         68   rt_memcpy_v6.o
       100          0          0          0          0         80   rt_memcpy_w.o
         2          0          0          0          0          0   rtexit.o
        10          0          0          0          0          0   rtexit2.o
      1188         12          0          0          0        148   scanf_fp.o
       792         14          0          0          0        100   scanf_hexfp.o
       308         16          0          0          0        100   scanf_infnan.o
        44          6          0          0          0         84   sprintf.o
        24          0          0          0          0         68   strcat.o
        20          0          0          0          0         68   strchr.o
       128          0          0          0          0         68   strcmpv7m.o
        72          0          0          0          0         80   strcpy.o
       142          0          0          0          0         84   strlcpy.o
        62          0          0          0          0         76   strlen.o
       150          0          0          0          0         80   strncmp.o
        86          0          0          0          0         76   strncpy.o
        36          0          0          0          0         80   strstr.o
       160         12          0          0          0        120   strtod.o
       112          0          0          0          0         88   strtol.o
        12          4          0          0          0         68   sys_exit.o
        74          0          0          0          0         80   sys_stackheap_outer.o
        30          0          0          0          0         76   toupper.o
         2          0          0          0          0         68   use_no_semi.o
        98          4          0          0          0         92   d2f.o
       826         16          0          0          0        348   daddsub_clz.o
        16          4          0          0          0         68   dcheck1.o
        24          0          0          0          0         68   dcmpi.o
       688        140          0          0          0        208   ddiv.o
       120          4          0          0          0         92   deqf.o
        94          4          0          0          0         92   dfix.o
        90          4          0          0          0         92   dfixu.o
        84          0          0          0          0        136   dflt_clz.o
       120          4          0          0          0         92   dleqf.o
       340         12          0          0          0        104   dmul.o
       156          4          0          0          0         92   dnaninf.o
        12          0          0          0          0         68   dretinf.o
       108          0          0          0          0         80   drleqf.o
       460         56          0          0          0        120   dsqrt_noumaal.o
        86          4          0          0          0         84   f2d.o
       450          8          0          0          0        236   faddsub_clz.o
        12          4          0          0          0         68   fcheck1.o
        24          0          0          0          0         68   fcmpi.o
        54          4          0          0          0         84   ffix.o
        62          4          0          0          0         84   ffixu.o
        38          0          0          0          0         68   fflt_clz.o
       104          4          0          0          0         84   fleqf.o
       258          4          0          0          0         84   fmul.o
       140          4          0          0          0         84   fnaninf.o
         0          0          8          0          0          0   fpconst.o
        10          0          0          0          0         68   fretinf.o
         4          0          0          0          0         68   printf1.o
         4          0          0          0          0         68   printf2.o
       100          0          0          0          0         68   retnan.o
        92          0          0          0          0         68   scalbn.o
        76          0          0          0          0         68   scalbnf.o
         4          0          0          0          0         68   scanf1.o
         8          0          0          0          0         84   scanf2.o
        48          0          0          0          0         68   trapv.o
         0          0          0          0          0          0   usenofp.o
        42          0          0          0          0         84   atof.o
       156          8          0          0          0        104   cos.o
       252         22         48          0          0        124   cos_i.o
        68         10          0          0          0        408   dunder.o
        40          0          0          0          0         68   fpclassify.o
        88          8          0          0          0         76   frexp.o
       138          0          0          0          0        160   ldexp.o
       152          4          0          0          0        168   narrow.o
       170          0          0          0          0         96   poly.o
      2488        190        136          0          0        300   pow.o
         0          0          8          0          0          0   qnan.o
       904         76        200          0          0        140   rred.o
       160         10          0          0          0        108   sin.o
       236         12         40          0          0        128   sin_i.o
        76          0          0          0          0         84   sqrt.o

    ----------------------------------------------------------------------
     21550       1032       1399          0        213      12372   Library Totals
        38          0         12          0          5          0   (incl. Padding)

    ----------------------------------------------------------------------

      Code (inc. data)   RO Data    RW Data    ZI Data      Debug   Library Name

     11732        404        947          0        208       7000   c_w.l
      4810        288          8          0          0       3324   fz_ws.l
      4970        340        432          0          0       2048   m_ws.l

    ----------------------------------------------------------------------
     21550       1032       1399          0        213      12372   Library Totals

    ----------------------------------------------------------------------

==============================================================================


      Code (inc. data)   RO Data    RW Data    ZI Data      Debug   

    106338      10316       9466       1492      22692     730687   Grand Totals
    106338      10316       9466        656      22692     730687   ELF Image Totals (compressed)
    106338      10316       9466        656          0          0   ROM Totals

==============================================================================

    Total RO  Size (Code + RO Data)               115804 ( 113.09kB)
    Total RW  Size (RW Data + ZI Data)             24184 (  23.62kB)
    Total ROM Size (Code + RO Data + RW Data)     116460 ( 113.73kB)

==============================================================================

